SF:C:\language\mdmdview\src\app.rs
FN:848,_RINvMs2_NtCsj01YzKchgFg_8mdmdview3appNtB6_17MarkdownViewerApp18spawn_named_threadNCNvB2_17spawn_file_loader0EB8_
FN:2245,_RNCNCNCNvMs2_NtCsj01YzKchgFg_8mdmdview3appNtBb_17MarkdownViewerApp11update_impls2_000Bd_
FN:1952,_RNCNCNCNvMs2_NtCsj01YzKchgFg_8mdmdview3appNtBb_17MarkdownViewerApp17render_status_bar000Bd_
FN:2033,_RNCNCNCNvMs2_NtCsj01YzKchgFg_8mdmdview3appNtBb_17MarkdownViewerApp19render_drag_overlay000Bd_
FN:2514,_RNCNCNCNvMs4_NtCsj01YzKchgFg_8mdmdview3appNtBb_17MarkdownViewerApp20render_search_dialog000Bd_
FN:2236,_RNCNCNvMs2_NtCsj01YzKchgFg_8mdmdview3appNtB9_17MarkdownViewerApp11update_impls2_00Bb_
FN:1839,_RNCNCNvMs2_NtCsj01YzKchgFg_8mdmdview3appNtB9_17MarkdownViewerApp15render_menu_bar0s_0Bb_
FN:1919,_RNCNCNvMs2_NtCsj01YzKchgFg_8mdmdview3appNtB9_17MarkdownViewerApp17render_status_bar00Bb_
FN:873,_RNCNCNvMs2_NtCsj01YzKchgFg_8mdmdview3appNtB9_17MarkdownViewerApp17spawn_file_loader00Bb_
FN:2032,_RNCNCNvMs2_NtCsj01YzKchgFg_8mdmdview3appNtB9_17MarkdownViewerApp19render_drag_overlay00Bb_
FN:1998,_RNCNCNvMs2_NtCsj01YzKchgFg_8mdmdview3appNtB9_17MarkdownViewerApp23handle_drag_drop_events00Bb_
FN:1497,_RNCNCNvMs2_NtCsj01YzKchgFg_8mdmdview3appNtB9_17MarkdownViewerApp25render_file_menu_contents00Bb_
FN:1539,_RNCNCNvMs2_NtCsj01YzKchgFg_8mdmdview3appNtB9_17MarkdownViewerApp25render_file_menu_contentss0_00Bb_
FN:1560,_RNCNCNvMs2_NtCsj01YzKchgFg_8mdmdview3appNtB9_17MarkdownViewerApp25render_file_menu_contentss1_00Bb_
FN:1580,_RNCNCNvMs2_NtCsj01YzKchgFg_8mdmdview3appNtB9_17MarkdownViewerApp25render_file_menu_contentss2_00Bb_
FN:1520,_RNCNCNvMs2_NtCsj01YzKchgFg_8mdmdview3appNtB9_17MarkdownViewerApp25render_file_menu_contentss_00Bb_
FN:1626,_RNCNCNvMs2_NtCsj01YzKchgFg_8mdmdview3appNtB9_17MarkdownViewerApp25render_view_menu_contents00Bb_
FN:1665,_RNCNCNvMs2_NtCsj01YzKchgFg_8mdmdview3appNtB9_17MarkdownViewerApp25render_view_menu_contentss0_00Bb_
FN:1688,_RNCNCNvMs2_NtCsj01YzKchgFg_8mdmdview3appNtB9_17MarkdownViewerApp25render_view_menu_contentss1_00Bb_
FN:1725,_RNCNCNvMs2_NtCsj01YzKchgFg_8mdmdview3appNtB9_17MarkdownViewerApp25render_view_menu_contentss3_00Bb_
FN:1744,_RNCNCNvMs2_NtCsj01YzKchgFg_8mdmdview3appNtB9_17MarkdownViewerApp25render_view_menu_contentss4_00Bb_
FN:1763,_RNCNCNvMs2_NtCsj01YzKchgFg_8mdmdview3appNtB9_17MarkdownViewerApp25render_view_menu_contentss5_00Bb_
FN:1781,_RNCNCNvMs2_NtCsj01YzKchgFg_8mdmdview3appNtB9_17MarkdownViewerApp25render_view_menu_contentss6_00Bb_
FN:1785,_RNCNCNvMs2_NtCsj01YzKchgFg_8mdmdview3appNtB9_17MarkdownViewerApp25render_view_menu_contentss6_0s_0Bb_
FN:1640,_RNCNCNvMs2_NtCsj01YzKchgFg_8mdmdview3appNtB9_17MarkdownViewerApp25render_view_menu_contentss_00Bb_
FN:2503,_RNCNCNvMs4_NtCsj01YzKchgFg_8mdmdview3appNtB9_17MarkdownViewerApp20render_search_dialog00Bb_
FN:2585,_RNCNCNvMs4_NtCsj01YzKchgFg_8mdmdview3appNtB9_17MarkdownViewerApp24handle_screenshot_events00Bb_
FN:2141,_RNCNvMs2_NtCsj01YzKchgFg_8mdmdview3appNtB7_17MarkdownViewerApp11update_impls0_0B9_
FN:2184,_RNCNvMs2_NtCsj01YzKchgFg_8mdmdview3appNtB7_17MarkdownViewerApp11update_impls2_0B9_
FN:2090,_RNCNvMs2_NtCsj01YzKchgFg_8mdmdview3appNtB7_17MarkdownViewerApp11update_impls_0B9_
FN:897,_RNCNvMs2_NtCsj01YzKchgFg_8mdmdview3appNtB7_17MarkdownViewerApp15poll_file_loads0B9_
FN:900,_RNCNvMs2_NtCsj01YzKchgFg_8mdmdview3appNtB7_17MarkdownViewerApp15poll_file_loadss_0B9_
FN:1832,_RNCNvMs2_NtCsj01YzKchgFg_8mdmdview3appNtB7_17MarkdownViewerApp15render_menu_bar0B9_
FN:1263,_RNCNvMs2_NtCsj01YzKchgFg_8mdmdview3appNtB7_17MarkdownViewerApp16handle_shortcuts0B9_
FN:1918,_RNCNvMs2_NtCsj01YzKchgFg_8mdmdview3appNtB7_17MarkdownViewerApp17render_status_bar0B9_
FN:870,_RNCNvMs2_NtCsj01YzKchgFg_8mdmdview3appNtB7_17MarkdownViewerApp17spawn_file_loader0B9_
FN:1168,_RNCNvMs2_NtCsj01YzKchgFg_8mdmdview3appNtB7_17MarkdownViewerApp19load_sample_by_name0B9_
FN:2016,_RNCNvMs2_NtCsj01YzKchgFg_8mdmdview3appNtB7_17MarkdownViewerApp19render_drag_overlay0B9_
FN:413,_RNCNvMs2_NtCsj01YzKchgFg_8mdmdview3appNtB7_17MarkdownViewerApp21move_raw_cursor_liness0_0B9_
FN:405,_RNCNvMs2_NtCsj01YzKchgFg_8mdmdview3appNtB7_17MarkdownViewerApp21move_raw_cursor_liness_0B9_
FN:1988,_RNCNvMs2_NtCsj01YzKchgFg_8mdmdview3appNtB7_17MarkdownViewerApp23handle_drag_drop_events0B9_
FN:1176,_RNCNvMs2_NtCsj01YzKchgFg_8mdmdview3appNtB7_17MarkdownViewerApp25load_welcome_from_samples0B9_
FN:1483,_RNCNvMs2_NtCsj01YzKchgFg_8mdmdview3appNtB7_17MarkdownViewerApp25render_file_menu_contents0B9_
FN:1525,_RNCNvMs2_NtCsj01YzKchgFg_8mdmdview3appNtB7_17MarkdownViewerApp25render_file_menu_contentss0_0B9_
FN:1544,_RNCNvMs2_NtCsj01YzKchgFg_8mdmdview3appNtB7_17MarkdownViewerApp25render_file_menu_contentss1_0B9_
FN:1565,_RNCNvMs2_NtCsj01YzKchgFg_8mdmdview3appNtB7_17MarkdownViewerApp25render_file_menu_contentss2_0B9_
FN:1502,_RNCNvMs2_NtCsj01YzKchgFg_8mdmdview3appNtB7_17MarkdownViewerApp25render_file_menu_contentss_0B9_
FN:1797,_RNCNvMs2_NtCsj01YzKchgFg_8mdmdview3appNtB7_17MarkdownViewerApp25render_help_menu_contents0B9_
FN:1813,_RNCNvMs2_NtCsj01YzKchgFg_8mdmdview3appNtB7_17MarkdownViewerApp25render_help_menu_contentss_0B9_
FN:1617,_RNCNvMs2_NtCsj01YzKchgFg_8mdmdview3appNtB7_17MarkdownViewerApp25render_view_menu_contents0B9_
FN:1647,_RNCNvMs2_NtCsj01YzKchgFg_8mdmdview3appNtB7_17MarkdownViewerApp25render_view_menu_contentss0_0B9_
FN:1670,_RNCNvMs2_NtCsj01YzKchgFg_8mdmdview3appNtB7_17MarkdownViewerApp25render_view_menu_contentss1_0B9_
FN:1693,_RNCNvMs2_NtCsj01YzKchgFg_8mdmdview3appNtB7_17MarkdownViewerApp25render_view_menu_contentss2_0B9_
FN:1711,_RNCNvMs2_NtCsj01YzKchgFg_8mdmdview3appNtB7_17MarkdownViewerApp25render_view_menu_contentss3_0B9_
FN:1730,_RNCNvMs2_NtCsj01YzKchgFg_8mdmdview3appNtB7_17MarkdownViewerApp25render_view_menu_contentss4_0B9_
FN:1749,_RNCNvMs2_NtCsj01YzKchgFg_8mdmdview3appNtB7_17MarkdownViewerApp25render_view_menu_contentss5_0B9_
FN:1770,_RNCNvMs2_NtCsj01YzKchgFg_8mdmdview3appNtB7_17MarkdownViewerApp25render_view_menu_contentss6_0B9_
FN:1631,_RNCNvMs2_NtCsj01YzKchgFg_8mdmdview3appNtB7_17MarkdownViewerApp25render_view_menu_contentss_0B9_
FN:780,_RNCNvMs2_NtCsj01YzKchgFg_8mdmdview3appNtB7_17MarkdownViewerApp9load_file0B9_
FN:799,_RNCNvMs2_NtCsj01YzKchgFg_8mdmdview3appNtB7_17MarkdownViewerApp9load_files0_0B9_
FN:803,_RNCNvMs2_NtCsj01YzKchgFg_8mdmdview3appNtB7_17MarkdownViewerApp9load_files1_0B9_
FN:782,_RNCNvMs2_NtCsj01YzKchgFg_8mdmdview3appNtB7_17MarkdownViewerApp9load_files_0B9_
FN:2806,_RNCNvMs4_NtCsj01YzKchgFg_8mdmdview3appNtB7_17MarkdownViewerApp12json_opt_f320B9_
FN:2807,_RNCNvMs4_NtCsj01YzKchgFg_8mdmdview3appNtB7_17MarkdownViewerApp12json_opt_f32s_0B9_
FN:2786,_RNCNvMs4_NtCsj01YzKchgFg_8mdmdview3appNtB7_17MarkdownViewerApp19color_image_to_rgba0B9_
FN:2748,_RNCNvMs4_NtCsj01YzKchgFg_8mdmdview3appNtB7_17MarkdownViewerApp19screenshot_metadata0B9_
FN:2749,_RNCNvMs4_NtCsj01YzKchgFg_8mdmdview3appNtB7_17MarkdownViewerApp19screenshot_metadatas_0B9_
FN:2501,_RNCNvMs4_NtCsj01YzKchgFg_8mdmdview3appNtB7_17MarkdownViewerApp20render_search_dialog0B9_
FN:2476,_RNCNvMs4_NtCsj01YzKchgFg_8mdmdview3appNtB7_17MarkdownViewerApp21save_current_document0B9_
FN:2480,_RNCNvMs4_NtCsj01YzKchgFg_8mdmdview3appNtB7_17MarkdownViewerApp21save_current_documents_0B9_
FN:2623,_RNCNvMs4_NtCsj01YzKchgFg_8mdmdview3appNtB7_17MarkdownViewerApp23update_screenshot_state0B9_
FN:2584,_RNCNvMs4_NtCsj01YzKchgFg_8mdmdview3appNtB7_17MarkdownViewerApp24handle_screenshot_events0B9_
FN:50,_RNCNvNtCsj01YzKchgFg_8mdmdview3app20app_action_triggered0B5_
FN:60,_RNCNvNtCsj01YzKchgFg_8mdmdview3app21take_forced_open_path0B5_
FN:65,_RNCNvNtCsj01YzKchgFg_8mdmdview3app21take_forced_save_path0B5_
FN:70,_RNCNvNtCsj01YzKchgFg_8mdmdview3app22take_forced_load_error0B5_
FN:75,_RNCNvNtCsj01YzKchgFg_8mdmdview3app22take_forced_scan_error0B5_
FN:85,_RNCNvNtCsj01YzKchgFg_8mdmdview3app28take_forced_read_lossy_error0B5_
FN:80,_RNCNvNtCsj01YzKchgFg_8mdmdview3app28take_forced_scan_entry_error0B5_
FN:103,_RNvMNtCsj01YzKchgFg_8mdmdview3appNtB2_15ScreenshotTheme6as_str
FN:227,_RNvMs0_NtCsj01YzKchgFg_8mdmdview3appNtB5_15ScreenshotState12scroll_ready
FN:212,_RNvMs0_NtCsj01YzKchgFg_8mdmdview3appNtB5_15ScreenshotState13record_scroll
FN:239,_RNvMs0_NtCsj01YzKchgFg_8mdmdview3appNtB5_15ScreenshotState16update_stability
FN:192,_RNvMs0_NtCsj01YzKchgFg_8mdmdview3appNtB5_15ScreenshotState3new
FN:1153,_RNvMs2_NtCsj01YzKchgFg_8mdmdview3appNtB5_17MarkdownViewerApp11load_sample
FN:2067,_RNvMs2_NtCsj01YzKchgFg_8mdmdview3appNtB5_17MarkdownViewerApp11update_impl
FN:744,_RNvMs2_NtCsj01YzKchgFg_8mdmdview3appNtB5_17MarkdownViewerApp12load_content
FN:1037,_RNvMs2_NtCsj01YzKchgFg_8mdmdview3appNtB5_17MarkdownViewerApp12push_history
FN:492,_RNvMs2_NtCsj01YzKchgFg_8mdmdview3appNtB5_17MarkdownViewerApp13find_previous
FN:1061,_RNvMs2_NtCsj01YzKchgFg_8mdmdview3appNtB5_17MarkdownViewerApp13navigate_back
FN:1203,_RNvMs2_NtCsj01YzKchgFg_8mdmdview3appNtB5_17MarkdownViewerApp13request_close
FN:1215,_RNvMs2_NtCsj01YzKchgFg_8mdmdview3appNtB5_17MarkdownViewerApp14pick_open_path
FN:1228,_RNvMs2_NtCsj01YzKchgFg_8mdmdview3appNtB5_17MarkdownViewerApp14pick_save_path
FN:1134,_RNvMs2_NtCsj01YzKchgFg_8mdmdview3appNtB5_17MarkdownViewerApp14request_reload
FN:717,_RNvMs2_NtCsj01YzKchgFg_8mdmdview3appNtB5_17MarkdownViewerApp14scan_directory
FN:579,_RNvMs2_NtCsj01YzKchgFg_8mdmdview3appNtB5_17MarkdownViewerApp14set_zoom_scale
FN:1032,_RNvMs2_NtCsj01YzKchgFg_8mdmdview3appNtB5_17MarkdownViewerApp15fold_for_search
FN:885,_RNvMs2_NtCsj01YzKchgFg_8mdmdview3appNtB5_17MarkdownViewerApp15poll_file_loads
FN:836,_RNvMs2_NtCsj01YzKchgFg_8mdmdview3appNtB5_17MarkdownViewerApp15read_file_lossy
FN:1831,_RNvMs2_NtCsj01YzKchgFg_8mdmdview3appNtB5_17MarkdownViewerApp15render_menu_bar
FN:603,_RNvMs2_NtCsj01YzKchgFg_8mdmdview3appNtB5_17MarkdownViewerApp16handle_file_drop
FN:1262,_RNvMs2_NtCsj01YzKchgFg_8mdmdview3appNtB5_17MarkdownViewerApp16handle_shortcuts
FN:1072,_RNvMs2_NtCsj01YzKchgFg_8mdmdview3appNtB5_17MarkdownViewerApp16navigate_forward
FN:1233,_RNvMs2_NtCsj01YzKchgFg_8mdmdview3appNtB5_17MarkdownViewerApp16open_file_dialog
FN:825,_RNvMs2_NtCsj01YzKchgFg_8mdmdview3appNtB5_17MarkdownViewerApp16read_lossy_bytes
FN:1242,_RNvMs2_NtCsj01YzKchgFg_8mdmdview3appNtB5_17MarkdownViewerApp16toggle_view_mode
FN:1124,_RNvMs2_NtCsj01YzKchgFg_8mdmdview3appNtB5_17MarkdownViewerApp17can_navigate_back
FN:1917,_RNvMs2_NtCsj01YzKchgFg_8mdmdview3appNtB5_17MarkdownViewerApp17render_status_bar
FN:867,_RNvMs2_NtCsj01YzKchgFg_8mdmdview3appNtB5_17MarkdownViewerApp17spawn_file_loader
FN:374,_RNvMs2_NtCsj01YzKchgFg_8mdmdview3appNtB5_17MarkdownViewerApp17toggle_write_mode
FN:448,_RNvMs2_NtCsj01YzKchgFg_8mdmdview3appNtB5_17MarkdownViewerApp18clear_search_state
FN:1191,_RNvMs2_NtCsj01YzKchgFg_8mdmdview3appNtB5_17MarkdownViewerApp18close_current_file
FN:708,_RNvMs2_NtCsj01YzKchgFg_8mdmdview3appNtB5_17MarkdownViewerApp18resolve_scan_entry
FN:1167,_RNvMs2_NtCsj01YzKchgFg_8mdmdview3appNtB5_17MarkdownViewerApp19load_sample_by_name
FN:1143,_RNvMs2_NtCsj01YzKchgFg_8mdmdview3appNtB5_17MarkdownViewerApp19reload_current_file
FN:2007,_RNvMs2_NtCsj01YzKchgFg_8mdmdview3appNtB5_17MarkdownViewerApp19render_drag_overlay
FN:583,_RNvMs2_NtCsj01YzKchgFg_8mdmdview3appNtB5_17MarkdownViewerApp19set_screenshot_mode
FN:1129,_RNvMs2_NtCsj01YzKchgFg_8mdmdview3appNtB5_17MarkdownViewerApp20can_navigate_forward
FN:915,_RNvMs2_NtCsj01YzKchgFg_8mdmdview3appNtB5_17MarkdownViewerApp20current_window_state
FN:1093,_RNvMs2_NtCsj01YzKchgFg_8mdmdview3appNtB5_17MarkdownViewerApp20restore_from_history
FN:1018,_RNvMs2_NtCsj01YzKchgFg_8mdmdview3appNtB5_17MarkdownViewerApp20window_state_changed
FN:395,_RNvMs2_NtCsj01YzKchgFg_8mdmdview3appNtB5_17MarkdownViewerApp21move_raw_cursor_lines
FN:1982,_RNvMs2_NtCsj01YzKchgFg_8mdmdview3appNtB5_17MarkdownViewerApp21render_status_tooltip
FN:593,_RNvMs2_NtCsj01YzKchgFg_8mdmdview3appNtB5_17MarkdownViewerApp22is_valid_markdown_file
FN:815,_RNvMs2_NtCsj01YzKchgFg_8mdmdview3appNtB5_17MarkdownViewerApp22normalize_line_endings
FN:1987,_RNvMs2_NtCsj01YzKchgFg_8mdmdview3appNtB5_17MarkdownViewerApp23handle_drag_drop_events
FN:1886,_RNvMs2_NtCsj01YzKchgFg_8mdmdview3appNtB5_17MarkdownViewerApp24render_main_context_menu
FN:925,_RNvMs2_NtCsj01YzKchgFg_8mdmdview3appNtB5_17MarkdownViewerApp25compute_window_adjustment
FN:1175,_RNvMs2_NtCsj01YzKchgFg_8mdmdview3appNtB5_17MarkdownViewerApp25load_welcome_from_samples
FN:1477,_RNvMs2_NtCsj01YzKchgFg_8mdmdview3appNtB5_17MarkdownViewerApp25render_file_menu_contents
FN:1791,_RNvMs2_NtCsj01YzKchgFg_8mdmdview3appNtB5_17MarkdownViewerApp25render_help_menu_contents
FN:1610,_RNvMs2_NtCsj01YzKchgFg_8mdmdview3appNtB5_17MarkdownViewerApp25render_view_menu_contents
FN:1601,_RNvMs2_NtCsj01YzKchgFg_8mdmdview3appNtB5_17MarkdownViewerApp28render_samples_menu_contents
FN:863,_RNvMs2_NtCsj01YzKchgFg_8mdmdview3appNtB5_17MarkdownViewerApp33force_thread_spawn_error_for_test
FN:529,_RNvMs2_NtCsj01YzKchgFg_8mdmdview3appNtB5_17MarkdownViewerApp3new
FN:455,_RNvMs2_NtCsj01YzKchgFg_8mdmdview3appNtB5_17MarkdownViewerApp9find_next
FN:769,_RNvMs2_NtCsj01YzKchgFg_8mdmdview3appNtB5_17MarkdownViewerApp9load_file
FN:2789,_RNvMs4_NtCsj01YzKchgFg_8mdmdview3appNtB5_17MarkdownViewerApp11json_escape
FN:2804,_RNvMs4_NtCsj01YzKchgFg_8mdmdview3appNtB5_17MarkdownViewerApp12json_opt_f32
FN:2779,_RNvMs4_NtCsj01YzKchgFg_8mdmdview3appNtB5_17MarkdownViewerApp19color_image_to_rgba
FN:2736,_RNvMs4_NtCsj01YzKchgFg_8mdmdview3appNtB5_17MarkdownViewerApp19screenshot_metadata
FN:2439,_RNvMs4_NtCsj01YzKchgFg_8mdmdview3appNtB5_17MarkdownViewerApp20persist_window_state
FN:2490,_RNvMs4_NtCsj01YzKchgFg_8mdmdview3appNtB5_17MarkdownViewerApp20render_search_dialog
FN:2679,_RNvMs4_NtCsj01YzKchgFg_8mdmdview3appNtB5_17MarkdownViewerApp20screenshot_is_stable
FN:2539,_RNvMs4_NtCsj01YzKchgFg_8mdmdview3appNtB5_17MarkdownViewerApp20should_submit_search
FN:2466,_RNvMs4_NtCsj01YzKchgFg_8mdmdview3appNtB5_17MarkdownViewerApp21save_current_document
FN:2688,_RNvMs4_NtCsj01YzKchgFg_8mdmdview3appNtB5_17MarkdownViewerApp21save_screenshot_image
FN:2543,_RNvMs4_NtCsj01YzKchgFg_8mdmdview3appNtB5_17MarkdownViewerApp21update_search_results
FN:2410,_RNvMs4_NtCsj01YzKchgFg_8mdmdview3appNtB5_17MarkdownViewerApp23menu_text_with_mnemonic
FN:2613,_RNvMs4_NtCsj01YzKchgFg_8mdmdview3appNtB5_17MarkdownViewerApp23update_screenshot_state
FN:2583,_RNvMs4_NtCsj01YzKchgFg_8mdmdview3appNtB5_17MarkdownViewerApp24handle_screenshot_events
FN:2451,_RNvMs4_NtCsj01YzKchgFg_8mdmdview3appNtB5_17MarkdownViewerApp27should_persist_window_state
FN:126,_RNvMs_NtCsj01YzKchgFg_8mdmdview3appNtB4_16ScreenshotConfig13metadata_path
FN:49,_RNvNtCsj01YzKchgFg_8mdmdview3app20app_action_triggered
FN:59,_RNvNtCsj01YzKchgFg_8mdmdview3app21take_forced_open_path
FN:64,_RNvNtCsj01YzKchgFg_8mdmdview3app21take_forced_save_path
FN:69,_RNvNtCsj01YzKchgFg_8mdmdview3app22take_forced_load_error
FN:74,_RNvNtCsj01YzKchgFg_8mdmdview3app22take_forced_scan_error
FN:84,_RNvNtCsj01YzKchgFg_8mdmdview3app28take_forced_read_lossy_error
FN:79,_RNvNtCsj01YzKchgFg_8mdmdview3app28take_forced_scan_entry_error
FN:265,_RNvXs1_NtCsj01YzKchgFg_8mdmdview3appNtB5_18ScreenshotSnapshotINtNtCs3mF4h8B4xym_4core7convert4FromRNtB5_15ScreenshotStateE4from
FN:2396,_RNvXs3_NtCsj01YzKchgFg_8mdmdview3appNtB5_17MarkdownViewerAppNtNtCskiGSzROu9kc_6eframe3epi3App18auto_save_interval
FN:2400,_RNvXs3_NtCsj01YzKchgFg_8mdmdview3appNtB5_17MarkdownViewerAppNtNtCskiGSzROu9kc_6eframe3epi3App4save
FN:2392,_RNvXs3_NtCsj01YzKchgFg_8mdmdview3appNtB5_17MarkdownViewerAppNtNtCskiGSzROu9kc_6eframe3epi3App6update
FN:2814,_RNvXs5_NtCsj01YzKchgFg_8mdmdview3appNtB5_17MarkdownViewerAppNtNtCs3mF4h8B4xym_4core7default7Default7default
FNDA:167,_RINvMs2_NtCsj01YzKchgFg_8mdmdview3appNtB6_17MarkdownViewerApp18spawn_named_threadNCNvB2_17spawn_file_loader0EB8_
FNDA:2,_RNCNCNCNvMs2_NtCsj01YzKchgFg_8mdmdview3appNtBb_17MarkdownViewerApp11update_impls2_000Bd_
FNDA:34,_RNCNCNCNvMs2_NtCsj01YzKchgFg_8mdmdview3appNtBb_17MarkdownViewerApp17render_status_bar000Bd_
FNDA:2,_RNCNCNCNvMs2_NtCsj01YzKchgFg_8mdmdview3appNtBb_17MarkdownViewerApp19render_drag_overlay000Bd_
FNDA:8,_RNCNCNCNvMs4_NtCsj01YzKchgFg_8mdmdview3appNtBb_17MarkdownViewerApp20render_search_dialog000Bd_
FNDA:30,_RNCNCNvMs2_NtCsj01YzKchgFg_8mdmdview3appNtB9_17MarkdownViewerApp11update_impls2_00Bb_
FNDA:31,_RNCNCNvMs2_NtCsj01YzKchgFg_8mdmdview3appNtB9_17MarkdownViewerApp15render_menu_bar0s_0Bb_
FNDA:34,_RNCNCNvMs2_NtCsj01YzKchgFg_8mdmdview3appNtB9_17MarkdownViewerApp17render_status_bar00Bb_
FNDA:1,_RNCNCNvMs2_NtCsj01YzKchgFg_8mdmdview3appNtB9_17MarkdownViewerApp17spawn_file_loader00Bb_
FNDA:2,_RNCNCNvMs2_NtCsj01YzKchgFg_8mdmdview3appNtB9_17MarkdownViewerApp19render_drag_overlay00Bb_
FNDA:1,_RNCNCNvMs2_NtCsj01YzKchgFg_8mdmdview3appNtB9_17MarkdownViewerApp23handle_drag_drop_events00Bb_
FNDA:35,_RNCNCNvMs2_NtCsj01YzKchgFg_8mdmdview3appNtB9_17MarkdownViewerApp25render_file_menu_contents00Bb_
FNDA:35,_RNCNCNvMs2_NtCsj01YzKchgFg_8mdmdview3appNtB9_17MarkdownViewerApp25render_file_menu_contentss0_00Bb_
FNDA:35,_RNCNCNvMs2_NtCsj01YzKchgFg_8mdmdview3appNtB9_17MarkdownViewerApp25render_file_menu_contentss1_00Bb_
FNDA:35,_RNCNCNvMs2_NtCsj01YzKchgFg_8mdmdview3appNtB9_17MarkdownViewerApp25render_file_menu_contentss2_00Bb_
FNDA:35,_RNCNCNvMs2_NtCsj01YzKchgFg_8mdmdview3appNtB9_17MarkdownViewerApp25render_file_menu_contentss_00Bb_
FNDA:34,_RNCNCNvMs2_NtCsj01YzKchgFg_8mdmdview3appNtB9_17MarkdownViewerApp25render_view_menu_contents00Bb_
FNDA:34,_RNCNCNvMs2_NtCsj01YzKchgFg_8mdmdview3appNtB9_17MarkdownViewerApp25render_view_menu_contentss0_00Bb_
FNDA:34,_RNCNCNvMs2_NtCsj01YzKchgFg_8mdmdview3appNtB9_17MarkdownViewerApp25render_view_menu_contentss1_00Bb_
FNDA:34,_RNCNCNvMs2_NtCsj01YzKchgFg_8mdmdview3appNtB9_17MarkdownViewerApp25render_view_menu_contentss3_00Bb_
FNDA:34,_RNCNCNvMs2_NtCsj01YzKchgFg_8mdmdview3appNtB9_17MarkdownViewerApp25render_view_menu_contentss4_00Bb_
FNDA:34,_RNCNCNvMs2_NtCsj01YzKchgFg_8mdmdview3appNtB9_17MarkdownViewerApp25render_view_menu_contentss5_00Bb_
FNDA:3,_RNCNCNvMs2_NtCsj01YzKchgFg_8mdmdview3appNtB9_17MarkdownViewerApp25render_view_menu_contentss6_00Bb_
FNDA:34,_RNCNCNvMs2_NtCsj01YzKchgFg_8mdmdview3appNtB9_17MarkdownViewerApp25render_view_menu_contentss6_0s_0Bb_
FNDA:34,_RNCNCNvMs2_NtCsj01YzKchgFg_8mdmdview3appNtB9_17MarkdownViewerApp25render_view_menu_contentss_00Bb_
FNDA:8,_RNCNCNvMs4_NtCsj01YzKchgFg_8mdmdview3appNtB9_17MarkdownViewerApp20render_search_dialog00Bb_
FNDA:7,_RNCNCNvMs4_NtCsj01YzKchgFg_8mdmdview3appNtB9_17MarkdownViewerApp24handle_screenshot_events00Bb_
FNDA:1,_RNCNvMs2_NtCsj01YzKchgFg_8mdmdview3appNtB7_17MarkdownViewerApp11update_impls0_0B9_
FNDA:30,_RNCNvMs2_NtCsj01YzKchgFg_8mdmdview3appNtB7_17MarkdownViewerApp11update_impls2_0B9_
FNDA:30,_RNCNvMs2_NtCsj01YzKchgFg_8mdmdview3appNtB7_17MarkdownViewerApp11update_impls_0B9_
FNDA:2,_RNCNvMs2_NtCsj01YzKchgFg_8mdmdview3appNtB7_17MarkdownViewerApp15poll_file_loads0B9_
FNDA:2,_RNCNvMs2_NtCsj01YzKchgFg_8mdmdview3appNtB7_17MarkdownViewerApp15poll_file_loadss_0B9_
FNDA:31,_RNCNvMs2_NtCsj01YzKchgFg_8mdmdview3appNtB7_17MarkdownViewerApp15render_menu_bar0B9_
FNDA:53,_RNCNvMs2_NtCsj01YzKchgFg_8mdmdview3appNtB7_17MarkdownViewerApp16handle_shortcuts0B9_
FNDA:34,_RNCNvMs2_NtCsj01YzKchgFg_8mdmdview3appNtB7_17MarkdownViewerApp17render_status_bar0B9_
FNDA:166,_RNCNvMs2_NtCsj01YzKchgFg_8mdmdview3appNtB7_17MarkdownViewerApp17spawn_file_loader0B9_
FNDA:16,_RNCNvMs2_NtCsj01YzKchgFg_8mdmdview3appNtB7_17MarkdownViewerApp19load_sample_by_name0B9_
FNDA:2,_RNCNvMs2_NtCsj01YzKchgFg_8mdmdview3appNtB7_17MarkdownViewerApp19render_drag_overlay0B9_
FNDA:2,_RNCNvMs2_NtCsj01YzKchgFg_8mdmdview3appNtB7_17MarkdownViewerApp21move_raw_cursor_liness0_0B9_
FNDA:1,_RNCNvMs2_NtCsj01YzKchgFg_8mdmdview3appNtB7_17MarkdownViewerApp21move_raw_cursor_liness_0B9_
FNDA:29,_RNCNvMs2_NtCsj01YzKchgFg_8mdmdview3appNtB7_17MarkdownViewerApp23handle_drag_drop_events0B9_
FNDA:171,_RNCNvMs2_NtCsj01YzKchgFg_8mdmdview3appNtB7_17MarkdownViewerApp25load_welcome_from_samples0B9_
FNDA:35,_RNCNvMs2_NtCsj01YzKchgFg_8mdmdview3appNtB7_17MarkdownViewerApp25render_file_menu_contents0B9_
FNDA:35,_RNCNvMs2_NtCsj01YzKchgFg_8mdmdview3appNtB7_17MarkdownViewerApp25render_file_menu_contentss0_0B9_
FNDA:35,_RNCNvMs2_NtCsj01YzKchgFg_8mdmdview3appNtB7_17MarkdownViewerApp25render_file_menu_contentss1_0B9_
FNDA:35,_RNCNvMs2_NtCsj01YzKchgFg_8mdmdview3appNtB7_17MarkdownViewerApp25render_file_menu_contentss2_0B9_
FNDA:35,_RNCNvMs2_NtCsj01YzKchgFg_8mdmdview3appNtB7_17MarkdownViewerApp25render_file_menu_contentss_0B9_
FNDA:34,_RNCNvMs2_NtCsj01YzKchgFg_8mdmdview3appNtB7_17MarkdownViewerApp25render_help_menu_contents0B9_
FNDA:34,_RNCNvMs2_NtCsj01YzKchgFg_8mdmdview3appNtB7_17MarkdownViewerApp25render_help_menu_contentss_0B9_
FNDA:34,_RNCNvMs2_NtCsj01YzKchgFg_8mdmdview3appNtB7_17MarkdownViewerApp25render_view_menu_contents0B9_
FNDA:34,_RNCNvMs2_NtCsj01YzKchgFg_8mdmdview3appNtB7_17MarkdownViewerApp25render_view_menu_contentss0_0B9_
FNDA:34,_RNCNvMs2_NtCsj01YzKchgFg_8mdmdview3appNtB7_17MarkdownViewerApp25render_view_menu_contentss1_0B9_
FNDA:34,_RNCNvMs2_NtCsj01YzKchgFg_8mdmdview3appNtB7_17MarkdownViewerApp25render_view_menu_contentss2_0B9_
FNDA:34,_RNCNvMs2_NtCsj01YzKchgFg_8mdmdview3appNtB7_17MarkdownViewerApp25render_view_menu_contentss3_0B9_
FNDA:34,_RNCNvMs2_NtCsj01YzKchgFg_8mdmdview3appNtB7_17MarkdownViewerApp25render_view_menu_contentss4_0B9_
FNDA:34,_RNCNvMs2_NtCsj01YzKchgFg_8mdmdview3appNtB7_17MarkdownViewerApp25render_view_menu_contentss5_0B9_
FNDA:34,_RNCNvMs2_NtCsj01YzKchgFg_8mdmdview3appNtB7_17MarkdownViewerApp25render_view_menu_contentss6_0B9_
FNDA:34,_RNCNvMs2_NtCsj01YzKchgFg_8mdmdview3appNtB7_17MarkdownViewerApp25render_view_menu_contentss_0B9_
FNDA:23,_RNCNvMs2_NtCsj01YzKchgFg_8mdmdview3appNtB7_17MarkdownViewerApp9load_file0B9_
FNDA:22,_RNCNvMs2_NtCsj01YzKchgFg_8mdmdview3appNtB7_17MarkdownViewerApp9load_files0_0B9_
FNDA:22,_RNCNvMs2_NtCsj01YzKchgFg_8mdmdview3appNtB7_17MarkdownViewerApp9load_files1_0B9_
FNDA:22,_RNCNvMs2_NtCsj01YzKchgFg_8mdmdview3appNtB7_17MarkdownViewerApp9load_files_0B9_
FNDA:3,_RNCNvMs4_NtCsj01YzKchgFg_8mdmdview3appNtB7_17MarkdownViewerApp12json_opt_f320B9_
FNDA:23,_RNCNvMs4_NtCsj01YzKchgFg_8mdmdview3appNtB7_17MarkdownViewerApp12json_opt_f32s_0B9_
FNDA:1,_RNCNvMs4_NtCsj01YzKchgFg_8mdmdview3appNtB7_17MarkdownViewerApp19color_image_to_rgba0B9_
FNDA:1,_RNCNvMs4_NtCsj01YzKchgFg_8mdmdview3appNtB7_17MarkdownViewerApp19screenshot_metadata0B9_
FNDA:11,_RNCNvMs4_NtCsj01YzKchgFg_8mdmdview3appNtB7_17MarkdownViewerApp19screenshot_metadatas_0B9_
FNDA:8,_RNCNvMs4_NtCsj01YzKchgFg_8mdmdview3appNtB7_17MarkdownViewerApp20render_search_dialog0B9_
FNDA:3,_RNCNvMs4_NtCsj01YzKchgFg_8mdmdview3appNtB7_17MarkdownViewerApp21save_current_document0B9_
FNDA:3,_RNCNvMs4_NtCsj01YzKchgFg_8mdmdview3appNtB7_17MarkdownViewerApp21save_current_documents_0B9_
FNDA:7,_RNCNvMs4_NtCsj01YzKchgFg_8mdmdview3appNtB7_17MarkdownViewerApp23update_screenshot_state0B9_
FNDA:35,_RNCNvMs4_NtCsj01YzKchgFg_8mdmdview3appNtB7_17MarkdownViewerApp24handle_screenshot_events0B9_
FNDA:974,_RNCNvNtCsj01YzKchgFg_8mdmdview3app20app_action_triggered0B5_
FNDA:8,_RNCNvNtCsj01YzKchgFg_8mdmdview3app21take_forced_open_path0B5_
FNDA:6,_RNCNvNtCsj01YzKchgFg_8mdmdview3app21take_forced_save_path0B5_
FNDA:27,_RNCNvNtCsj01YzKchgFg_8mdmdview3app22take_forced_load_error0B5_
FNDA:8,_RNCNvNtCsj01YzKchgFg_8mdmdview3app22take_forced_scan_error0B5_
FNDA:3,_RNCNvNtCsj01YzKchgFg_8mdmdview3app28take_forced_read_lossy_error0B5_
FNDA:10,_RNCNvNtCsj01YzKchgFg_8mdmdview3app28take_forced_scan_entry_error0B5_
FNDA:14,_RNvMNtCsj01YzKchgFg_8mdmdview3appNtB2_15ScreenshotTheme6as_str
FNDA:9,_RNvMs0_NtCsj01YzKchgFg_8mdmdview3appNtB5_15ScreenshotState12scroll_ready
FNDA:6,_RNvMs0_NtCsj01YzKchgFg_8mdmdview3appNtB5_15ScreenshotState13record_scroll
FNDA:9,_RNvMs0_NtCsj01YzKchgFg_8mdmdview3appNtB5_15ScreenshotState16update_stability
FNDA:14,_RNvMs0_NtCsj01YzKchgFg_8mdmdview3appNtB5_15ScreenshotState3new
FNDA:27,_RNvMs2_NtCsj01YzKchgFg_8mdmdview3appNtB5_17MarkdownViewerApp11load_sample
FNDA:31,_RNvMs2_NtCsj01YzKchgFg_8mdmdview3appNtB5_17MarkdownViewerApp11update_impl
FNDA:234,_RNvMs2_NtCsj01YzKchgFg_8mdmdview3appNtB5_17MarkdownViewerApp12load_content
FNDA:48,_RNvMs2_NtCsj01YzKchgFg_8mdmdview3appNtB5_17MarkdownViewerApp12push_history
FNDA:6,_RNvMs2_NtCsj01YzKchgFg_8mdmdview3appNtB5_17MarkdownViewerApp13find_previous
FNDA:4,_RNvMs2_NtCsj01YzKchgFg_8mdmdview3appNtB5_17MarkdownViewerApp13navigate_back
FNDA:2,_RNvMs2_NtCsj01YzKchgFg_8mdmdview3appNtB5_17MarkdownViewerApp13request_close
FNDA:8,_RNvMs2_NtCsj01YzKchgFg_8mdmdview3appNtB5_17MarkdownViewerApp14pick_open_path
FNDA:6,_RNvMs2_NtCsj01YzKchgFg_8mdmdview3appNtB5_17MarkdownViewerApp14pick_save_path
FNDA:4,_RNvMs2_NtCsj01YzKchgFg_8mdmdview3appNtB5_17MarkdownViewerApp14request_reload
FNDA:8,_RNvMs2_NtCsj01YzKchgFg_8mdmdview3appNtB5_17MarkdownViewerApp14scan_directory
FNDA:1,_RNvMs2_NtCsj01YzKchgFg_8mdmdview3appNtB5_17MarkdownViewerApp14set_zoom_scale
FNDA:39,_RNvMs2_NtCsj01YzKchgFg_8mdmdview3appNtB5_17MarkdownViewerApp15fold_for_search
FNDA:35,_RNvMs2_NtCsj01YzKchgFg_8mdmdview3appNtB5_17MarkdownViewerApp15poll_file_loads
FNDA:28,_RNvMs2_NtCsj01YzKchgFg_8mdmdview3appNtB5_17MarkdownViewerApp15read_file_lossy
FNDA:31,_RNvMs2_NtCsj01YzKchgFg_8mdmdview3appNtB5_17MarkdownViewerApp15render_menu_bar
FNDA:16,_RNvMs2_NtCsj01YzKchgFg_8mdmdview3appNtB5_17MarkdownViewerApp16handle_file_drop
FNDA:53,_RNvMs2_NtCsj01YzKchgFg_8mdmdview3appNtB5_17MarkdownViewerApp16handle_shortcuts
FNDA:7,_RNvMs2_NtCsj01YzKchgFg_8mdmdview3appNtB5_17MarkdownViewerApp16navigate_forward
FNDA:8,_RNvMs2_NtCsj01YzKchgFg_8mdmdview3appNtB5_17MarkdownViewerApp16open_file_dialog
FNDA:3,_RNvMs2_NtCsj01YzKchgFg_8mdmdview3appNtB5_17MarkdownViewerApp16read_lossy_bytes
FNDA:9,_RNvMs2_NtCsj01YzKchgFg_8mdmdview3appNtB5_17MarkdownViewerApp16toggle_view_mode
FNDA:34,_RNvMs2_NtCsj01YzKchgFg_8mdmdview3appNtB5_17MarkdownViewerApp17can_navigate_back
FNDA:34,_RNvMs2_NtCsj01YzKchgFg_8mdmdview3appNtB5_17MarkdownViewerApp17render_status_bar
FNDA:167,_RNvMs2_NtCsj01YzKchgFg_8mdmdview3appNtB5_17MarkdownViewerApp17spawn_file_loader
FNDA:10,_RNvMs2_NtCsj01YzKchgFg_8mdmdview3appNtB5_17MarkdownViewerApp17toggle_write_mode
FNDA:3,_RNvMs2_NtCsj01YzKchgFg_8mdmdview3appNtB5_17MarkdownViewerApp18clear_search_state
FNDA:6,_RNvMs2_NtCsj01YzKchgFg_8mdmdview3appNtB5_17MarkdownViewerApp18close_current_file
FNDA:10,_RNvMs2_NtCsj01YzKchgFg_8mdmdview3appNtB5_17MarkdownViewerApp18resolve_scan_entry
FNDA:8,_RNvMs2_NtCsj01YzKchgFg_8mdmdview3appNtB5_17MarkdownViewerApp19load_sample_by_name
FNDA:4,_RNvMs2_NtCsj01YzKchgFg_8mdmdview3appNtB5_17MarkdownViewerApp19reload_current_file
FNDA:30,_RNvMs2_NtCsj01YzKchgFg_8mdmdview3appNtB5_17MarkdownViewerApp19render_drag_overlay
FNDA:3,_RNvMs2_NtCsj01YzKchgFg_8mdmdview3appNtB5_17MarkdownViewerApp19set_screenshot_mode
FNDA:35,_RNvMs2_NtCsj01YzKchgFg_8mdmdview3appNtB5_17MarkdownViewerApp20can_navigate_forward
FNDA:11,_RNvMs2_NtCsj01YzKchgFg_8mdmdview3appNtB5_17MarkdownViewerApp20current_window_state
FNDA:8,_RNvMs2_NtCsj01YzKchgFg_8mdmdview3appNtB5_17MarkdownViewerApp20restore_from_history
FNDA:12,_RNvMs2_NtCsj01YzKchgFg_8mdmdview3appNtB5_17MarkdownViewerApp20window_state_changed
FNDA:15,_RNvMs2_NtCsj01YzKchgFg_8mdmdview3appNtB5_17MarkdownViewerApp21move_raw_cursor_lines
FNDA:36,_RNvMs2_NtCsj01YzKchgFg_8mdmdview3appNtB5_17MarkdownViewerApp21render_status_tooltip
FNDA:143,_RNvMs2_NtCsj01YzKchgFg_8mdmdview3appNtB5_17MarkdownViewerApp22is_valid_markdown_file
FNDA:32,_RNvMs2_NtCsj01YzKchgFg_8mdmdview3appNtB5_17MarkdownViewerApp22normalize_line_endings
FNDA:29,_RNvMs2_NtCsj01YzKchgFg_8mdmdview3appNtB5_17MarkdownViewerApp23handle_drag_drop_events
FNDA:2,_RNvMs2_NtCsj01YzKchgFg_8mdmdview3appNtB5_17MarkdownViewerApp24render_main_context_menu
FNDA:41,_RNvMs2_NtCsj01YzKchgFg_8mdmdview3appNtB5_17MarkdownViewerApp25compute_window_adjustment
FNDA:172,_RNvMs2_NtCsj01YzKchgFg_8mdmdview3appNtB5_17MarkdownViewerApp25load_welcome_from_samples
FNDA:35,_RNvMs2_NtCsj01YzKchgFg_8mdmdview3appNtB5_17MarkdownViewerApp25render_file_menu_contents
FNDA:34,_RNvMs2_NtCsj01YzKchgFg_8mdmdview3appNtB5_17MarkdownViewerApp25render_help_menu_contents
FNDA:34,_RNvMs2_NtCsj01YzKchgFg_8mdmdview3appNtB5_17MarkdownViewerApp25render_view_menu_contents
FNDA:38,_RNvMs2_NtCsj01YzKchgFg_8mdmdview3appNtB5_17MarkdownViewerApp28render_samples_menu_contents
FNDA:1,_RNvMs2_NtCsj01YzKchgFg_8mdmdview3appNtB5_17MarkdownViewerApp33force_thread_spawn_error_for_test
FNDA:164,_RNvMs2_NtCsj01YzKchgFg_8mdmdview3appNtB5_17MarkdownViewerApp3new
FNDA:6,_RNvMs2_NtCsj01YzKchgFg_8mdmdview3appNtB5_17MarkdownViewerApp9find_next
FNDA:27,_RNvMs2_NtCsj01YzKchgFg_8mdmdview3appNtB5_17MarkdownViewerApp9load_file
FNDA:14,_RNvMs4_NtCsj01YzKchgFg_8mdmdview3appNtB5_17MarkdownViewerApp11json_escape
FNDA:26,_RNvMs4_NtCsj01YzKchgFg_8mdmdview3appNtB5_17MarkdownViewerApp12json_opt_f32
FNDA:16,_RNvMs4_NtCsj01YzKchgFg_8mdmdview3appNtB5_17MarkdownViewerApp19color_image_to_rgba
FNDA:12,_RNvMs4_NtCsj01YzKchgFg_8mdmdview3appNtB5_17MarkdownViewerApp19screenshot_metadata
FNDA:6,_RNvMs4_NtCsj01YzKchgFg_8mdmdview3appNtB5_17MarkdownViewerApp20persist_window_state
FNDA:35,_RNvMs4_NtCsj01YzKchgFg_8mdmdview3appNtB5_17MarkdownViewerApp20render_search_dialog
FNDA:11,_RNvMs4_NtCsj01YzKchgFg_8mdmdview3appNtB5_17MarkdownViewerApp20screenshot_is_stable
FNDA:11,_RNvMs4_NtCsj01YzKchgFg_8mdmdview3appNtB5_17MarkdownViewerApp20should_submit_search
FNDA:11,_RNvMs4_NtCsj01YzKchgFg_8mdmdview3appNtB5_17MarkdownViewerApp21save_current_document
FNDA:15,_RNvMs4_NtCsj01YzKchgFg_8mdmdview3appNtB5_17MarkdownViewerApp21save_screenshot_image
FNDA:12,_RNvMs4_NtCsj01YzKchgFg_8mdmdview3appNtB5_17MarkdownViewerApp21update_search_results
FNDA:484,_RNvMs4_NtCsj01YzKchgFg_8mdmdview3appNtB5_17MarkdownViewerApp23menu_text_with_mnemonic
FNDA:36,_RNvMs4_NtCsj01YzKchgFg_8mdmdview3appNtB5_17MarkdownViewerApp23update_screenshot_state
FNDA:35,_RNvMs4_NtCsj01YzKchgFg_8mdmdview3appNtB5_17MarkdownViewerApp24handle_screenshot_events
FNDA:34,_RNvMs4_NtCsj01YzKchgFg_8mdmdview3appNtB5_17MarkdownViewerApp27should_persist_window_state
FNDA:13,_RNvMs_NtCsj01YzKchgFg_8mdmdview3appNtB4_16ScreenshotConfig13metadata_path
FNDA:975,_RNvNtCsj01YzKchgFg_8mdmdview3app20app_action_triggered
FNDA:8,_RNvNtCsj01YzKchgFg_8mdmdview3app21take_forced_open_path
FNDA:6,_RNvNtCsj01YzKchgFg_8mdmdview3app21take_forced_save_path
FNDA:27,_RNvNtCsj01YzKchgFg_8mdmdview3app22take_forced_load_error
FNDA:8,_RNvNtCsj01YzKchgFg_8mdmdview3app22take_forced_scan_error
FNDA:3,_RNvNtCsj01YzKchgFg_8mdmdview3app28take_forced_read_lossy_error
FNDA:10,_RNvNtCsj01YzKchgFg_8mdmdview3app28take_forced_scan_entry_error
FNDA:2,_RNvXs1_NtCsj01YzKchgFg_8mdmdview3appNtB5_18ScreenshotSnapshotINtNtCs3mF4h8B4xym_4core7convert4FromRNtB5_15ScreenshotStateE4from
FNDA:1,_RNvXs3_NtCsj01YzKchgFg_8mdmdview3appNtB5_17MarkdownViewerAppNtNtCskiGSzROu9kc_6eframe3epi3App18auto_save_interval
FNDA:2,_RNvXs3_NtCsj01YzKchgFg_8mdmdview3appNtB5_17MarkdownViewerAppNtNtCskiGSzROu9kc_6eframe3epi3App4save
FNDA:1,_RNvXs3_NtCsj01YzKchgFg_8mdmdview3appNtB5_17MarkdownViewerAppNtNtCskiGSzROu9kc_6eframe3epi3App6update
FNDA:1,_RNvXs5_NtCsj01YzKchgFg_8mdmdview3appNtB5_17MarkdownViewerAppNtNtCs3mF4h8B4xym_4core7default7Default7default
FNF:165
FNH:165
DA:49,975
DA:50,975
DA:51,975
DA:59,8
DA:60,8
DA:61,8
DA:64,6
DA:65,6
DA:66,6
DA:69,27
DA:70,27
DA:71,27
DA:74,8
DA:75,8
DA:76,8
DA:79,10
DA:80,10
DA:81,10
DA:84,3
DA:85,3
DA:86,3
DA:103,14
DA:104,14
DA:105,11
DA:106,3
DA:108,14
DA:126,13
DA:127,13
DA:128,13
DA:192,14
DA:193,14
DA:194,14
DA:195,14
DA:196,14
DA:197,14
DA:198,14
DA:199,14
DA:200,14
DA:201,14
DA:202,14
DA:203,14
DA:204,14
DA:205,14
DA:206,14
DA:207,14
DA:208,14
DA:209,14
DA:210,14
DA:212,6
DA:213,6
DA:214,6
DA:215,6
DA:217,6
DA:218,3
DA:219,2
DA:220,2
DA:221,2
DA:222,1
DA:223,3
DA:224,4
DA:225,6
DA:227,9
DA:229,9
DA:230,9
DA:231,9
DA:233,3
DA:234,3
DA:235,3
DA:237,9
DA:239,9
DA:240,9
DA:241,9
DA:242,5
DA:243,4
DA:244,4
DA:245,5
DA:246,4
DA:247,4
DA:248,4
DA:250,9
DA:251,4
DA:252,1
DA:253,3
DA:254,5
DA:256,9
DA:257,8
DA:258,8
DA:259,1
DA:260,1
DA:261,9
DA:265,2
DA:266,2
DA:267,2
DA:268,2
DA:269,2
DA:270,2
DA:271,2
DA:272,2
DA:273,2
DA:274,2
DA:275,2
DA:276,2
DA:374,10
DA:375,10
DA:377,5
DA:378,4
DA:379,4
DA:380,3
DA:381,2
DA:382,2
DA:383,1
DA:384,1
DA:385,5
DA:388,5
DA:389,5
DA:390,4
DA:391,4
DA:393,10
DA:395,15
DA:396,15
DA:397,3
DA:398,12
DA:399,12
DA:400,12
DA:401,11
DA:402,11
DA:403,11
DA:404,11
DA:405,11
DA:406,11
DA:408,11
DA:409,11
DA:411,3
DA:413,3
DA:414,6
DA:415,3
DA:416,1
DA:417,2
DA:418,2
DA:419,2
DA:420,3
DA:424,7
DA:426,7
DA:427,5
DA:428,5
DA:429,5
DA:430,10
DA:431,3
DA:432,1
DA:433,2
DA:434,2
DA:435,2
DA:436,3
DA:439,1
DA:441,11
DA:442,11
DA:443,11
DA:444,11
DA:445,11
DA:446,1
DA:447,15
DA:448,3
DA:449,3
DA:450,3
DA:451,3
DA:452,3
DA:453,3
DA:454,3
DA:455,6
DA:456,6
DA:457,1
DA:458,5
DA:459,5
DA:460,4
DA:461,4
DA:463,1
DA:465,5
DA:466,5
DA:467,4
DA:468,4
DA:469,1
DA:470,1
DA:472,5
DA:473,6
DA:474,6
DA:475,5
DA:477,1
DA:479,9
DA:480,8
DA:481,8
DA:483,8
DA:484,5
DA:485,5
DA:486,5
DA:487,3
DA:490,6
DA:492,6
DA:493,6
DA:494,1
DA:495,5
DA:496,5
DA:497,4
DA:498,4
DA:500,1
DA:502,5
DA:503,5
DA:504,5
DA:505,3
DA:506,3
DA:507,2
DA:508,2
DA:510,6
DA:511,6
DA:512,5
DA:514,1
DA:516,10
DA:517,9
DA:518,9
DA:520,9
DA:521,5
DA:522,5
DA:523,5
DA:524,4
DA:527,6
DA:529,164
DA:530,164
DA:531,164
DA:532,164
DA:533,164
DA:534,164
DA:535,164
DA:536,164
DA:537,164
DA:538,164
DA:539,164
DA:540,164
DA:541,164
DA:542,164
DA:543,164
DA:544,164
DA:545,164
DA:546,164
DA:547,164
DA:548,164
DA:549,164
DA:550,164
DA:551,164
DA:552,164
DA:553,164
DA:554,164
DA:555,164
DA:556,164
DA:557,164
DA:558,164
DA:559,164
DA:560,164
DA:561,164
DA:562,164
DA:563,164
DA:564,164
DA:565,164
DA:566,164
DA:567,164
DA:568,164
DA:569,164
DA:570,164
DA:571,164
DA:572,164
DA:574,164
DA:576,164
DA:577,164
DA:579,1
DA:580,1
DA:581,1
DA:583,3
DA:584,3
DA:585,3
DA:586,3
DA:587,3
DA:588,3
DA:589,3
DA:590,3
DA:593,143
DA:594,143
DA:595,142
DA:596,142
DA:598,1
DA:600,143
DA:603,16
DA:604,16
DA:605,1
DA:606,15
DA:608,15
DA:609,15
DA:612,147
DA:613,132
DA:614,3
DA:615,3
DA:616,129
DA:618,129
DA:620,4
DA:621,3
DA:622,3
DA:623,2
DA:624,2
DA:625,2
DA:626,2
DA:627,2
DA:628,1
DA:629,1
DA:631,1
DA:632,1
DA:633,1
DA:635,4
DA:636,125
DA:638,125
DA:639,3
DA:640,3
DA:641,3
DA:643,3
DA:644,122
DA:646,122
DA:651,15
DA:652,2
DA:653,2
DA:654,2
DA:655,2
DA:656,2
DA:657,2
DA:658,2
DA:659,13
DA:662,13
DA:664,7
DA:665,7
DA:666,1
DA:667,1
DA:668,6
DA:671,6
DA:674,6
DA:675,3
DA:676,3
DA:677,3
DA:678,3
DA:679,3
DA:680,6
DA:683,12
DA:684,8
DA:685,7
DA:687,1
DA:689,8
DA:690,6
DA:691,2
DA:693,1
DA:696,1
DA:697,1
DA:699,1
DA:700,1
DA:703,8
DA:704,4
DA:705,16
DA:708,10
DA:710,10
DA:711,1
DA:712,9
DA:713,9
DA:714,10
DA:717,8
DA:719,8
DA:720,1
DA:721,7
DA:723,7
DA:725,7
DA:727,14
DA:728,9
DA:729,8
DA:732,8
DA:733,6
DA:734,6
DA:738,5
DA:740,5
DA:741,8
DA:744,234
DA:745,234
DA:746,234
DA:747,234
DA:748,234
DA:749,234
DA:751,234
DA:752,234
DA:754,234
DA:755,233
DA:756,233
DA:757,233
DA:758,232
DA:759,232
DA:761,1
DA:762,1
DA:763,1
DA:764,1
DA:766,234
DA:769,27
DA:771,27
DA:772,3
DA:773,24
DA:776,24
DA:777,18
DA:778,18
DA:780,24
DA:781,24
DA:782,23
DA:783,24
DA:784,2
DA:785,2
DA:786,2
DA:787,2
DA:788,2
DA:789,2
DA:790,2
DA:791,1
DA:792,1
DA:793,1
DA:794,22
DA:796,23
DA:797,22
DA:798,22
DA:799,22
DA:800,22
DA:801,22
DA:803,22
DA:804,22
DA:805,22
DA:806,22
DA:807,22
DA:808,1
DA:809,21
DA:810,22
DA:811,27
DA:815,32
DA:817,32
DA:818,32
DA:819,1
DA:821,31
DA:823,32
DA:825,3
DA:827,3
DA:828,1
DA:829,1
DA:830,1
DA:831,1
DA:832,2
DA:833,2
DA:834,3
DA:836,28
DA:837,28
DA:838,23
DA:839,5
DA:840,3
DA:841,2
DA:842,2
DA:844,2
DA:846,28
DA:848,167
DA:849,167
DA:850,167
DA:851,167
DA:853,167
DA:854,1
DA:855,1
DA:856,1
DA:857,1
DA:858,166
DA:859,166
DA:860,167
DA:863,1
DA:864,1
DA:865,1
DA:867,167
DA:868,167
DA:869,167
DA:870,167
DA:871,166
DA:872,3
DA:873,3
DA:874,3
DA:875,3
DA:876,3
DA:877,3
DA:879,166
DA:880,1
DA:881,166
DA:882,167
DA:883,167
DA:885,35
DA:886,39
DA:887,4
DA:888,4
DA:889,1
DA:891,3
DA:892,3
DA:893,2
DA:894,2
DA:895,2
DA:896,2
DA:897,2
DA:898,2
DA:899,2
DA:900,2
DA:901,2
DA:902,2
DA:903,2
DA:904,2
DA:905,1
DA:906,1
DA:908,1
DA:909,1
DA:910,1
DA:913,35
DA:915,11
DA:916,11
DA:917,9
DA:918,8
DA:919,8
DA:920,8
DA:921,8
DA:922,8
DA:923,11
DA:925,41
DA:926,41
DA:927,41
DA:928,41
DA:929,41
DA:930,41
DA:931,15
DA:932,15
DA:934,14
DA:935,2
DA:936,12
DA:942,12
DA:943,12
DA:944,12
DA:945,12
DA:947,12
DA:948,3
DA:949,3
DA:950,9
DA:951,12
DA:952,2
DA:953,2
DA:954,10
DA:956,12
DA:957,12
DA:958,12
DA:959,12
DA:960,12
DA:963,12
DA:964,12
DA:966,12
DA:967,3
DA:968,3
DA:969,9
DA:970,12
DA:971,3
DA:972,3
DA:973,9
DA:974,12
DA:975,1
DA:976,1
DA:977,11
DA:978,12
DA:979,1
DA:980,1
DA:981,11
DA:983,12
DA:984,12
DA:985,12
DA:986,12
DA:989,12
DA:990,1
DA:991,1
DA:992,11
DA:993,12
DA:994,2
DA:995,2
DA:996,10
DA:997,12
DA:998,2
DA:999,2
DA:1000,10
DA:1001,12
DA:1002,2
DA:1003,2
DA:1004,10
DA:1006,12
DA:1007,10
DA:1008,10
DA:1009,10
DA:1010,10
DA:1011,10
DA:1012,10
DA:1014,2
DA:1016,41
DA:1018,12
DA:1019,12
DA:1020,5
DA:1021,5
DA:1022,4
DA:1023,5
DA:1024,4
DA:1025,5
DA:1026,5
DA:1028,7
DA:1030,12
DA:1032,39
DA:1033,39
DA:1034,39
DA:1037,48
DA:1039,48
DA:1040,2
DA:1041,46
DA:1044,48
DA:1045,48
DA:1046,48
DA:1047,48
DA:1048,48
DA:1050,48
DA:1053,48
DA:1054,1
DA:1055,47
DA:1056,47
DA:1057,47
DA:1058,48
DA:1061,4
DA:1062,4
DA:1063,3
DA:1064,3
DA:1065,3
DA:1067,1
DA:1069,4
DA:1072,7
DA:1074,7
DA:1076,2
DA:1077,1
DA:1078,1
DA:1079,2
DA:1080,5
DA:1083,5
DA:1084,2
DA:1085,2
DA:1086,2
DA:1088,3
DA:1090,7
DA:1093,8
DA:1094,8
DA:1095,7
DA:1096,7
DA:1097,7
DA:1098,7
DA:1101,7
DA:1102,6
DA:1103,6
DA:1104,6
DA:1105,6
DA:1106,1
DA:1107,1
DA:1108,1
DA:1112,7
DA:1113,1
DA:1114,6
DA:1115,6
DA:1116,6
DA:1119,7
DA:1120,1
DA:1121,8
DA:1124,34
DA:1125,34
DA:1126,34
DA:1129,35
DA:1130,35
DA:1131,35
DA:1134,4
DA:1135,4
DA:1136,1
DA:1137,3
DA:1138,3
DA:1139,3
DA:1140,4
DA:1143,4
DA:1144,4
DA:1145,2
DA:1147,2
DA:1149,2
DA:1150,4
DA:1153,27
DA:1155,27
DA:1156,26
DA:1157,26
DA:1159,27
DA:1161,27
DA:1162,27
DA:1164,27
DA:1165,27
DA:1167,8
DA:1168,16
DA:1169,7
DA:1170,7
DA:1171,1
DA:1172,1
DA:1173,8
DA:1175,172
DA:1176,172
DA:1177,171
DA:1178,171
DA:1179,7
DA:1180,164
DA:1181,1
DA:1182,1
DA:1183,1
DA:1184,1
DA:1185,1
DA:1186,1
DA:1187,1
DA:1188,172
DA:1191,6
DA:1192,6
DA:1193,6
DA:1194,6
DA:1195,6
DA:1203,2
DA:1215,8
DA:1216,8
DA:1217,8
DA:1228,6
DA:1229,6
DA:1230,6
DA:1233,8
DA:1234,8
DA:1235,5
DA:1236,1
DA:1237,4
DA:1238,3
DA:1239,8
DA:1242,9
DA:1244,9
DA:1245,4
DA:1246,4
DA:1247,2
DA:1248,1
DA:1249,1
DA:1250,2
DA:1251,5
DA:1252,9
DA:1254,4
DA:1255,4
DA:1257,5
DA:1259,9
DA:1262,53
DA:1263,53
DA:1264,53
DA:1266,53
DA:1267,53
DA:1268,53
DA:1269,53
DA:1270,1
DA:1271,52
DA:1274,53
DA:1275,53
DA:1276,53
DA:1277,53
DA:1278,1
DA:1279,52
DA:1280,53
DA:1281,53
DA:1282,53
DA:1283,53
DA:1284,1
DA:1285,52
DA:1286,53
DA:1287,53
DA:1288,53
DA:1289,53
DA:1290,1
DA:1291,52
DA:1294,53
DA:1295,53
DA:1296,53
DA:1297,53
DA:1298,1
DA:1299,52
DA:1302,53
DA:1303,53
DA:1304,53
DA:1305,53
DA:1306,1
DA:1307,52
DA:1310,53
DA:1311,53
DA:1312,53
DA:1313,53
DA:1314,3
DA:1315,3
DA:1316,2
DA:1317,2
DA:1318,3
DA:1319,50
DA:1322,53
DA:1323,53
DA:1324,53
DA:1325,53
DA:1326,53
DA:1327,53
DA:1328,53
DA:1329,53
DA:1330,53
DA:1331,3
DA:1332,50
DA:1333,1
DA:1334,49
DA:1337,53
DA:1338,53
DA:1339,53
DA:1340,53
DA:1341,1
DA:1342,52
DA:1345,53
DA:1346,53
DA:1347,53
DA:1348,53
DA:1349,1
DA:1350,52
DA:1353,53
DA:1354,53
DA:1355,53
DA:1356,53
DA:1357,1
DA:1358,52
DA:1361,53
DA:1362,53
DA:1363,53
DA:1364,53
DA:1365,1
DA:1366,52
DA:1369,53
DA:1370,53
DA:1371,53
DA:1372,53
DA:1373,1
DA:1374,52
DA:1377,53
DA:1378,6
DA:1379,11
DA:1380,5
DA:1381,4
DA:1382,4
DA:1384,6
DA:1385,4
DA:1386,2
DA:1387,2
DA:1388,2
DA:1389,2
DA:1390,2
DA:1391,47
DA:1394,53
DA:1395,53
DA:1396,53
DA:1397,53
DA:1398,1
DA:1399,1
DA:1400,52
DA:1402,53
DA:1403,53
DA:1404,53
DA:1405,53
DA:1406,1
DA:1407,52
DA:1409,53
DA:1410,53
DA:1411,53
DA:1412,53
DA:1413,2
DA:1414,1
DA:1415,1
DA:1416,51
DA:1420,53
DA:1421,1
DA:1422,52
DA:1425,53
DA:1426,1
DA:1427,52
DA:1430,53
DA:1431,1
DA:1432,1
DA:1433,52
DA:1436,53
DA:1437,45
DA:1438,1
DA:1439,44
DA:1440,45
DA:1441,1
DA:1442,44
DA:1444,45
DA:1445,1
DA:1446,44
DA:1449,45
DA:1450,1
DA:1451,44
DA:1454,45
DA:1455,1
DA:1456,44
DA:1459,45
DA:1460,1
DA:1461,44
DA:1465,8
DA:1466,1
DA:1467,1
DA:1468,7
DA:1469,8
DA:1470,1
DA:1471,1
DA:1472,7
DA:1474,53
DA:1475,53
DA:1477,35
DA:1478,35
DA:1479,35
DA:1480,35
DA:1481,35
DA:1482,35
DA:1483,35
DA:1484,35
DA:1485,35
DA:1486,35
DA:1487,35
DA:1488,35
DA:1489,35
DA:1490,35
DA:1491,35
DA:1492,35
DA:1493,35
DA:1494,3
DA:1495,3
DA:1496,32
DA:1497,35
DA:1498,35
DA:1499,35
DA:1500,35
DA:1502,35
DA:1503,35
DA:1504,35
DA:1505,35
DA:1506,35
DA:1507,35
DA:1508,35
DA:1510,35
DA:1511,35
DA:1514,35
DA:1515,4
DA:1516,1
DA:1517,3
DA:1518,4
DA:1519,31
DA:1520,35
DA:1521,35
DA:1522,35
DA:1523,35
DA:1525,35
DA:1526,35
DA:1527,35
DA:1528,35
DA:1529,35
DA:1530,35
DA:1531,35
DA:1532,35
DA:1533,35
DA:1534,35
DA:1535,35
DA:1536,3
DA:1537,3
DA:1538,32
DA:1539,35
DA:1540,35
DA:1541,35
DA:1542,35
DA:1544,35
DA:1545,35
DA:1546,35
DA:1547,35
DA:1548,35
DA:1549,35
DA:1550,35
DA:1552,35
DA:1553,35
DA:1556,35
DA:1557,3
DA:1558,3
DA:1559,32
DA:1560,35
DA:1561,35
DA:1562,35
DA:1563,35
DA:1565,35
DA:1566,35
DA:1567,35
DA:1568,35
DA:1569,35
DA:1570,35
DA:1571,35
DA:1572,35
DA:1573,35
DA:1574,35
DA:1575,35
DA:1576,3
DA:1577,3
DA:1578,3
DA:1579,32
DA:1580,35
DA:1581,35
DA:1582,35
DA:1583,35
DA:1585,35
DA:1595,35
DA:1596,35
DA:1597,3
DA:1598,32
DA:1599,35
DA:1601,38
DA:1602,266
DA:1603,228
DA:1604,12
DA:1605,12
DA:1606,216
DA:1608,38
DA:1610,34
DA:1611,34
DA:1612,34
DA:1613,34
DA:1614,34
DA:1615,34
DA:1616,34
DA:1617,34
DA:1618,34
DA:1619,34
DA:1620,34
DA:1621,34
DA:1622,34
DA:1623,3
DA:1624,3
DA:1625,31
DA:1626,34
DA:1627,34
DA:1628,34
DA:1629,34
DA:1631,34
DA:1632,34
DA:1633,34
DA:1634,34
DA:1635,34
DA:1636,34
DA:1637,3
DA:1638,3
DA:1639,31
DA:1640,34
DA:1641,34
DA:1642,34
DA:1643,34
DA:1645,34
DA:1647,34
DA:1648,34
DA:1649,34
DA:1650,34
DA:1651,34
DA:1652,34
DA:1653,34
DA:1654,34
DA:1655,34
DA:1656,34
DA:1657,34
DA:1658,34
DA:1659,34
DA:1660,34
DA:1661,34
DA:1662,3
DA:1663,3
DA:1664,31
DA:1665,34
DA:1666,34
DA:1667,34
DA:1668,34
DA:1670,34
DA:1671,34
DA:1672,34
DA:1673,34
DA:1674,34
DA:1675,34
DA:1676,34
DA:1677,34
DA:1678,34
DA:1679,34
DA:1680,34
DA:1681,34
DA:1682,34
DA:1683,34
DA:1684,34
DA:1685,3
DA:1686,3
DA:1687,31
DA:1688,34
DA:1689,34
DA:1690,34
DA:1691,34
DA:1693,34
DA:1694,34
DA:1695,34
DA:1696,34
DA:1697,34
DA:1698,34
DA:1699,34
DA:1700,34
DA:1701,34
DA:1702,34
DA:1703,34
DA:1704,34
DA:1705,34
DA:1706,34
DA:1707,3
DA:1708,31
DA:1709,34
DA:1711,34
DA:1712,34
DA:1713,34
DA:1714,34
DA:1715,34
DA:1716,34
DA:1717,34
DA:1718,34
DA:1719,34
DA:1720,34
DA:1721,34
DA:1722,3
DA:1723,3
DA:1724,31
DA:1725,34
DA:1726,34
DA:1727,34
DA:1728,34
DA:1730,34
DA:1731,34
DA:1732,34
DA:1733,34
DA:1734,34
DA:1735,34
DA:1736,34
DA:1737,34
DA:1738,34
DA:1739,34
DA:1740,34
DA:1741,3
DA:1742,3
DA:1743,31
DA:1744,34
DA:1745,34
DA:1746,34
DA:1747,34
DA:1749,34
DA:1750,34
DA:1751,34
DA:1752,34
DA:1753,34
DA:1754,34
DA:1755,34
DA:1756,34
DA:1757,34
DA:1758,34
DA:1759,34
DA:1760,3
DA:1761,3
DA:1762,31
DA:1763,34
DA:1764,34
DA:1765,34
DA:1766,34
DA:1768,34
DA:1770,34
DA:1771,34
DA:1772,34
DA:1773,34
DA:1774,34
DA:1775,34
DA:1776,34
DA:1777,34
DA:1778,34
DA:1779,34
DA:1780,34
DA:1781,3
DA:1782,3
DA:1783,3
DA:1784,31
DA:1785,34
DA:1786,34
DA:1787,34
DA:1788,34
DA:1789,34
DA:1791,34
DA:1792,34
DA:1793,34
DA:1794,34
DA:1795,34
DA:1796,34
DA:1797,34
DA:1798,34
DA:1799,34
DA:1800,34
DA:1801,34
DA:1802,34
DA:1803,34
DA:1804,34
DA:1805,34
DA:1806,34
DA:1807,34
DA:1808,3
DA:1809,3
DA:1810,31
DA:1811,34
DA:1813,34
DA:1814,34
DA:1815,34
DA:1816,34
DA:1817,34
DA:1818,34
DA:1819,34
DA:1820,34
DA:1821,34
DA:1822,34
DA:1823,34
DA:1824,3
DA:1825,3
DA:1826,31
DA:1827,34
DA:1828,34
DA:1831,31
DA:1832,31
DA:1833,31
DA:1834,31
DA:1835,30
DA:1837,1
DA:1839,31
DA:1849,31
DA:1850,31
DA:1851,1
DA:1852,30
DA:1863,31
DA:1864,31
DA:1865,1
DA:1866,30
DA:1876,31
DA:1877,31
DA:1878,1
DA:1879,30
DA:1880,31
DA:1881,31
DA:1884,31
DA:1886,2
DA:1887,2
DA:1888,2
DA:1891,2
DA:1892,1
DA:1893,1
DA:1894,1
DA:1895,1
DA:1898,2
DA:1899,1
DA:1900,1
DA:1901,1
DA:1903,2
DA:1906,2
DA:1907,1
DA:1908,1
DA:1909,1
DA:1911,2
DA:1912,1
DA:1913,1
DA:1914,1
DA:1915,2
DA:1917,34
DA:1918,34
DA:1919,34
DA:1921,34
DA:1922,2
DA:1923,32
DA:1924,28
DA:1925,28
DA:1926,4
DA:1927,4
DA:1929,34
DA:1930,1
DA:1931,1
DA:1932,1
DA:1933,1
DA:1934,1
DA:1935,33
DA:1938,34
DA:1939,2
DA:1940,2
DA:1941,2
DA:1942,2
DA:1943,2
DA:1944,2
DA:1945,2
DA:1946,2
DA:1947,2
DA:1948,2
DA:1949,2
DA:1950,32
DA:1952,34
DA:1954,34
DA:1955,34
DA:1956,34
DA:1957,24
DA:1958,10
DA:1960,34
DA:1961,34
DA:1965,34
DA:1966,34
DA:1967,34
DA:1968,34
DA:1974,34
DA:1975,2
DA:1976,32
DA:1977,34
DA:1978,34
DA:1979,34
DA:1980,34
DA:1982,36
DA:1983,36
DA:1984,36
DA:1985,36
DA:1987,29
DA:1988,29
DA:1990,29
DA:1993,29
DA:1994,1
DA:1995,1
DA:1996,1
DA:1997,1
DA:1998,1
DA:1999,1
DA:2001,1
DA:2002,28
DA:2003,29
DA:2004,29
DA:2007,30
DA:2008,30
DA:2009,28
DA:2010,2
DA:2013,2
DA:2014,2
DA:2015,2
DA:2016,2
DA:2017,2
DA:2020,2
DA:2021,2
DA:2024,2
DA:2025,2
DA:2028,2
DA:2029,2
DA:2032,2
DA:2033,2
DA:2034,2
DA:2037,2
DA:2038,2
DA:2039,2
DA:2040,2
DA:2041,2
DA:2044,2
DA:2047,2
DA:2048,2
DA:2049,2
DA:2050,2
DA:2053,2
DA:2056,2
DA:2057,2
DA:2058,2
DA:2059,2
DA:2060,2
DA:2062,2
DA:2063,2
DA:2064,2
DA:2065,30
DA:2067,31
DA:2068,31
DA:2069,31
DA:2070,31
DA:2071,1
DA:2072,30
DA:2074,30
DA:2075,30
DA:2078,30
DA:2079,29
DA:2080,29
DA:2083,30
DA:2084,29
DA:2085,29
DA:2088,30
DA:2090,30
DA:2091,30
DA:2092,30
DA:2093,30
DA:2094,30
DA:2095,30
DA:2096,30
DA:2097,30
DA:2098,30
DA:2099,30
DA:2101,30
DA:2102,30
DA:2103,30
DA:2104,2
DA:2105,29
DA:2107,2
DA:2108,1
DA:2109,1
DA:2110,1
DA:2111,1
DA:2112,2
DA:2113,1
DA:2114,1
DA:2115,1
DA:2116,1
DA:2117,27
DA:2118,1
DA:2120,30
DA:2121,29
DA:2122,3
DA:2123,26
DA:2124,1
DA:2125,30
DA:2126,28
DA:2127,2
DA:2128,26
DA:2129,2
DA:2130,30
DA:2133,30
DA:2134,1
DA:2135,1
DA:2136,29
DA:2139,30
DA:2140,1
DA:2141,1
DA:2142,1
DA:2143,29
DA:2146,30
DA:2147,1
DA:2148,1
DA:2149,29
DA:2152,30
DA:2153,1
DA:2154,1
DA:2155,29
DA:2158,30
DA:2159,1
DA:2160,29
DA:2163,30
DA:2164,2
DA:2165,2
DA:2166,1
DA:2167,1
DA:2168,28
DA:2171,30
DA:2172,29
DA:2173,29
DA:2174,29
DA:2176,30
DA:2177,30
DA:2178,30
DA:2179,30
DA:2180,30
DA:2181,30
DA:2184,30
DA:2186,30
DA:2187,2
DA:2188,2
DA:2189,28
DA:2192,30
DA:2193,6
DA:2196,1
DA:2200,1
DA:2203,1
DA:2204,1
DA:2205,1
DA:2208,1
DA:2209,1
DA:2210,1
DA:2213,1
DA:2216,1
DA:2220,24
DA:2226,30
DA:2227,30
DA:2228,30
DA:2229,30
DA:2230,30
DA:2231,1
DA:2232,29
DA:2233,30
DA:2234,1
DA:2235,29
DA:2236,30
DA:2238,30
DA:2239,6
DA:2240,24
DA:2242,30
DA:2244,30
DA:2245,2
DA:2246,2
DA:2247,2
DA:2248,2
DA:2249,2
DA:2250,2
DA:2252,2
DA:2253,1
DA:2254,1
DA:2255,2
DA:2257,28
DA:2260,19
DA:2261,1
DA:2262,18
DA:2263,2
DA:2264,16
DA:2265,16
DA:2266,16
DA:2268,19
DA:2270,19
DA:2271,2
DA:2272,1
DA:2273,1
DA:2274,1
DA:2275,17
DA:2277,19
DA:2278,13
DA:2279,11
DA:2280,11
DA:2281,6
DA:2282,19
DA:2286,9
DA:2287,8
DA:2289,8
DA:2290,2
DA:2291,1
DA:2292,2
DA:2293,1
DA:2294,1
DA:2295,1
DA:2296,1
DA:2297,1
DA:2298,1
DA:2299,1
DA:2300,1
DA:2301,1
DA:2302,1
DA:2303,1
DA:2304,1
DA:2305,1
DA:2306,1
DA:2307,6
DA:2308,8
DA:2309,8
DA:2310,8
DA:2311,8
DA:2312,8
DA:2313,8
DA:2314,8
DA:2315,8
DA:2316,8
DA:2317,8
DA:2319,8
DA:2320,4
DA:2321,4
DA:2322,4
DA:2324,3
DA:2325,8
DA:2327,3
DA:2328,2
DA:2329,2
DA:2330,2
DA:2331,5
DA:2332,8
DA:2333,2
DA:2334,2
DA:2335,1
DA:2336,1
DA:2337,1
DA:2338,1
DA:2339,1
DA:2340,1
DA:2341,1
DA:2342,1
DA:2344,6
DA:2345,1
DA:2346,1
DA:2347,1
DA:2348,1
DA:2349,1
DA:2350,1
DA:2351,1
DA:2352,1
DA:2353,1
DA:2354,1
DA:2355,1
DA:2356,1
DA:2357,1
DA:2361,30
DA:2362,30
DA:2363,30
DA:2364,30
DA:2365,30
DA:2366,30
DA:2367,30
DA:2375,30
DA:2376,1
DA:2377,29
DA:2378,30
DA:2380,30
DA:2381,29
DA:2382,29
DA:2383,29
DA:2384,29
DA:2385,29
DA:2386,29
DA:2387,31
DA:2392,1
DA:2393,1
DA:2394,1
DA:2396,1
DA:2397,1
DA:2398,1
DA:2400,2
DA:2402,2
DA:2403,1
DA:2404,1
DA:2405,2
DA:2410,484
DA:2411,484
DA:2412,484
DA:2413,484
DA:2414,484
DA:2415,484
DA:2416,484
DA:2417,484
DA:2418,484
DA:2419,484
DA:2420,484
DA:2421,484
DA:2422,484
DA:2423,1
DA:2424,483
DA:2425,484
DA:2426,484
DA:2427,4461
DA:2428,4461
DA:2429,4461
DA:2430,1
DA:2431,1
DA:2432,1
DA:2433,4460
DA:2434,4461
DA:2435,4461
DA:2437,484
DA:2438,484
DA:2439,6
DA:2440,6
DA:2441,5
DA:2442,1
DA:2443,4
DA:2444,4
DA:2445,3
DA:2446,3
DA:2447,3
DA:2448,1
DA:2449,6
DA:2451,34
DA:2452,34
DA:2453,2
DA:2454,32
DA:2455,32
DA:2456,29
DA:2457,3
DA:2458,3
DA:2459,2
DA:2461,1
DA:2463,34
DA:2466,11
DA:2467,11
DA:2468,5
DA:2469,3
DA:2470,3
DA:2471,3
DA:2472,6
DA:2473,4
DA:2474,3
DA:2475,3
DA:2476,3
DA:2477,3
DA:2478,3
DA:2479,3
DA:2480,3
DA:2481,3
DA:2482,3
DA:2483,3
DA:2485,2
DA:2487,11
DA:2490,35
DA:2491,35
DA:2492,27
DA:2493,8
DA:2494,8
DA:2495,8
DA:2496,8
DA:2497,8
DA:2498,8
DA:2499,8
DA:2500,8
DA:2501,8
DA:2502,8
DA:2503,8
DA:2504,8
DA:2505,8
DA:2506,8
DA:2507,8
DA:2508,8
DA:2509,2
DA:2510,2
DA:2511,6
DA:2512,8
DA:2513,8
DA:2514,8
DA:2515,1
DA:2516,1
DA:2517,7
DA:2518,8
DA:2519,8
DA:2520,2
DA:2521,6
DA:2522,8
DA:2523,8
DA:2524,1
DA:2525,7
DA:2526,8
DA:2527,8
DA:2528,8
DA:2529,2
DA:2530,6
DA:2531,8
DA:2533,8
DA:2534,2
DA:2535,6
DA:2536,8
DA:2537,35
DA:2539,11
DA:2540,11
DA:2541,11
DA:2543,12
DA:2544,12
DA:2545,8
DA:2546,4
DA:2547,4
DA:2548,1
DA:2549,1
DA:2550,1
DA:2551,3
DA:2552,3
DA:2554,3
DA:2555,3
DA:2556,3
DA:2557,3
DA:2558,6
DA:2559,5
DA:2560,3
DA:2562,2
DA:2564,8
DA:2565,5
DA:2566,5
DA:2568,5
DA:2569,2
DA:2570,2
DA:2571,3
DA:2573,5
DA:2574,2
DA:2575,3
DA:2577,3
DA:2578,2
DA:2579,2
DA:2580,2
DA:2581,12
DA:2583,35
DA:2584,35
DA:2585,35
DA:2586,7
DA:2587,4
DA:2589,3
DA:2591,7
DA:2592,35
DA:2593,35
DA:2594,31
DA:2596,2
DA:2597,4
DA:2598,1
DA:2600,3
DA:2601,1
DA:2602,2
DA:2603,2
DA:2605,2
DA:2606,1
DA:2607,1
DA:2608,2
DA:2609,2
DA:2610,2
DA:2611,35
DA:2613,36
DA:2614,36
DA:2615,36
DA:2616,36
DA:2617,36
DA:2618,36
DA:2619,36
DA:2620,29
DA:2622,7
DA:2623,7
DA:2624,7
DA:2625,7
DA:2626,7
DA:2628,7
DA:2629,6
DA:2630,6
DA:2631,6
DA:2632,6
DA:2633,6
DA:2634,6
DA:2635,6
DA:2636,6
DA:2637,6
DA:2639,7
DA:2640,7
DA:2641,7
DA:2642,3
DA:2643,3
DA:2644,4
DA:2646,7
DA:2648,7
DA:2649,7
DA:2650,7
DA:2651,7
DA:2652,7
DA:2653,7
DA:2654,7
DA:2655,7
DA:2656,7
DA:2659,7
DA:2660,6
DA:2661,2
DA:2662,4
DA:2663,6
DA:2664,4
DA:2665,4
DA:2666,4
DA:2667,1
DA:2668,1
DA:2669,1
DA:2671,7
DA:2672,1
DA:2673,6
DA:2674,7
DA:2675,5
DA:2676,5
DA:2677,36
DA:2679,11
DA:2680,11
DA:2681,11
DA:2682,11
DA:2683,11
DA:2684,11
DA:2685,11
DA:2686,11
DA:2688,15
DA:2689,15
DA:2690,15
DA:2691,15
DA:2693,15
DA:2694,15
DA:2695,15
DA:2696,15
DA:2698,15
DA:2699,8
DA:2700,7
DA:2701,7
DA:2702,7
DA:2703,7
DA:2704,7
DA:2706,7
DA:2707,7
DA:2708,7
DA:2709,7
DA:2711,7
DA:2712,7
DA:2713,7
DA:2714,5
DA:2715,5
DA:2716,5
DA:2717,5
DA:2718,5
DA:2719,1
DA:2720,7
DA:2722,15
DA:2723,5
DA:2724,10
DA:2726,15
DA:2727,14
DA:2728,1
DA:2729,14
DA:2731,12
DA:2732,12
DA:2733,11
DA:2734,15
DA:2736,12
DA:2737,12
DA:2738,12
DA:2739,12
DA:2740,12
DA:2741,12
DA:2742,12
DA:2743,12
DA:2744,12
DA:2745,12
DA:2746,12
DA:2747,12
DA:2748,12
DA:2749,12
DA:2750,12
DA:2751,12
DA:2752,12
DA:2754,12
DA:2755,12
DA:2759,12
DA:2777,12
DA:2779,16
DA:2780,16
DA:2781,16
DA:2782,16
DA:2783,10616
DA:2784,10600
DA:2785,10600
DA:2786,16
DA:2787,16
DA:2789,14
DA:2790,14
DA:2791,701
DA:2792,701
DA:2793,86
DA:2794,1
DA:2795,1
DA:2796,1
DA:2797,1
DA:2798,611
DA:2801,14
DA:2802,14
DA:2804,26
DA:2805,26
DA:2806,26
DA:2807,26
DA:2808,26
DA:2814,1
DA:2815,1
DA:2816,1
BRF:0
BRH:0
LF:2049
LH:2049
end_of_record
SF:C:\language\mdmdview\src\emoji_assets.rs
FN:58,_RNvNtCsj01YzKchgFg_8mdmdview12emoji_assets10draw_check
FN:4,_RNvNtCsj01YzKchgFg_8mdmdview12emoji_assets10make_image
FN:43,_RNvNtCsj01YzKchgFg_8mdmdview12emoji_assets11draw_circle
FN:130,_RNvNtCsj01YzKchgFg_8mdmdview12emoji_assets4star
FN:143,_RNvNtCsj01YzKchgFg_8mdmdview12emoji_assets5flame
FN:115,_RNvNtCsj01YzKchgFg_8mdmdview12emoji_assets5heart
FN:91,_RNvNtCsj01YzKchgFg_8mdmdview12emoji_assets6rocket
FN:74,_RNvNtCsj01YzKchgFg_8mdmdview12emoji_assets8confetti
FN:60,_RNCNvNtCsj01YzKchgFg_8mdmdview12emoji_assets10draw_check0B5_
FNDA:1,_RNvNtCsj01YzKchgFg_8mdmdview12emoji_assets10draw_check
FNDA:19,_RNvNtCsj01YzKchgFg_8mdmdview12emoji_assets10make_image
FNDA:4,_RNvNtCsj01YzKchgFg_8mdmdview12emoji_assets11draw_circle
FNDA:1,_RNvNtCsj01YzKchgFg_8mdmdview12emoji_assets4star
FNDA:1,_RNvNtCsj01YzKchgFg_8mdmdview12emoji_assets5flame
FNDA:8,_RNvNtCsj01YzKchgFg_8mdmdview12emoji_assets5heart
FNDA:2,_RNvNtCsj01YzKchgFg_8mdmdview12emoji_assets6rocket
FNDA:1,_RNvNtCsj01YzKchgFg_8mdmdview12emoji_assets8confetti
FNDA:40,_RNCNvNtCsj01YzKchgFg_8mdmdview12emoji_assets10draw_check0B5_
FNF:9
FNH:9
DA:4,19
DA:5,19
DA:6,19
DA:7,19
DA:8,1
DA:9,1
DA:10,1
DA:12,18
DA:13,1
DA:14,1
DA:15,1
DA:17,17
DA:18,2
DA:19,2
DA:20,2
DA:21,2
DA:22,2
DA:23,2
DA:25,2
DA:27,15
DA:28,8
DA:29,8
DA:31,7
DA:32,1
DA:33,1
DA:35,6
DA:36,1
DA:37,1
DA:39,5
DA:41,19
DA:43,4
DA:44,4
DA:45,4
DA:46,4
DA:47,136
DA:48,5824
DA:49,5824
DA:50,5824
DA:51,5824
DA:52,3772
DA:53,3772
DA:56,4
DA:58,1
DA:59,1
DA:60,40
DA:61,40
DA:62,40
DA:64,8
DA:65,8
DA:66,8
DA:67,8
DA:68,12
DA:69,12
DA:70,12
DA:71,12
DA:72,1
DA:74,1
DA:75,1
DA:76,1
DA:77,1
DA:78,1
DA:79,1
DA:80,1
DA:81,1
DA:82,4
DA:83,4
DA:84,4
DA:85,4
DA:86,3
DA:87,3
DA:89,1
DA:91,2
DA:92,2
DA:94,44
DA:95,768
DA:96,768
DA:97,768
DA:100,14
DA:101,116
DA:102,116
DA:103,116
DA:104,116
DA:107,14
DA:108,116
DA:109,116
DA:110,116
DA:111,116
DA:113,2
DA:115,8
DA:116,8
DA:117,432
DA:118,25728
DA:119,25728
DA:120,25728
DA:121,25728
DA:122,25728
DA:123,25728
DA:124,7626
DA:125,18102
DA:128,8
DA:130,1
DA:131,1
DA:132,24
DA:133,24
DA:134,24
DA:135,24
DA:136,24
DA:137,24
DA:138,24
DA:139,24
DA:140,24
DA:141,1
DA:143,1
DA:144,1
DA:145,1
DA:146,1
DA:147,24
DA:148,576
DA:149,576
DA:150,576
DA:151,576
DA:152,576
DA:153,161
DA:154,161
DA:155,161
DA:156,161
DA:157,161
DA:158,161
DA:159,415
DA:162,1
BRF:0
BRH:0
LF:131
LH:131
end_of_record
SF:C:\language\mdmdview\src\emoji_catalog.rs
FN:85,_RNCNvNtCsj01YzKchgFg_8mdmdview13emoji_catalog13shortcode_map0B5_
FN:82,_RNvNtCsj01YzKchgFg_8mdmdview13emoji_catalog13shortcode_map
FN:4,_RNvNtCsj01YzKchgFg_8mdmdview13emoji_catalog15image_bytes_for
FNDA:1,_RNCNvNtCsj01YzKchgFg_8mdmdview13emoji_catalog13shortcode_map0B5_
FNDA:33,_RNvNtCsj01YzKchgFg_8mdmdview13emoji_catalog13shortcode_map
FNDA:4360,_RNvNtCsj01YzKchgFg_8mdmdview13emoji_catalog15image_bytes_for
FNF:3
FNH:3
DA:4,4360
DA:5,4360
DA:6,4360
DA:7,2
DA:8,2
DA:9,2
DA:10,4358
DA:11,2
DA:12,2
DA:13,2
DA:14,4356
DA:15,8
DA:16,8
DA:17,8
DA:18,4348
DA:19,3
DA:20,3
DA:21,3
DA:22,4345
DA:23,8
DA:24,8
DA:25,8
DA:26,4337
DA:27,1
DA:28,1
DA:29,1
DA:30,4336
DA:31,1
DA:32,1
DA:33,1
DA:34,4335
DA:35,1
DA:36,1
DA:37,1
DA:38,4334
DA:39,1
DA:40,1
DA:41,1
DA:42,4333
DA:43,1
DA:44,1
DA:45,1
DA:46,4332
DA:47,1
DA:48,1
DA:49,1
DA:50,4331
DA:51,1
DA:52,1
DA:53,1
DA:54,4330
DA:55,1
DA:56,1
DA:57,1
DA:58,4329
DA:59,1
DA:60,1
DA:61,1
DA:62,4328
DA:63,1
DA:64,1
DA:65,1
DA:66,4327
DA:67,1
DA:68,1
DA:69,1
DA:70,4326
DA:71,1
DA:72,1
DA:73,1
DA:74,4325
DA:75,1
DA:76,1
DA:77,1
DA:78,4324
DA:80,4360
DA:82,33
DA:85,33
DA:86,1
DA:87,1
DA:88,1
DA:89,1
DA:90,1
DA:91,1
DA:92,1
DA:93,1
DA:94,1
DA:95,1
DA:96,1
DA:97,1
DA:98,1
DA:99,1
DA:100,1
DA:101,1
DA:102,1
DA:103,1
DA:104,1
DA:105,1
DA:106,1
DA:107,1
DA:108,33
BRF:0
BRH:0
LF:102
LH:102
end_of_record
SF:C:\language\mdmdview\src\image_decode.rs
FN:62,_RNvNtCsj01YzKchgFg_8mdmdview12image_decode17raster_dimensions
FN:78,_RNvNtCsj01YzKchgFg_8mdmdview12image_decode19pixmap_new_for_test
FN:67,_RNvNtCsj01YzKchgFg_8mdmdview12image_decode21raster_exceeds_limits
FN:49,_RNvNtCsj01YzKchgFg_8mdmdview12image_decode23guessed_format_for_test
FN:45,_RNvNtCsj01YzKchgFg_8mdmdview12image_decode24svg_bytes_to_color_image
FN:168,_RNvNtCsj01YzKchgFg_8mdmdview12image_decode26bytes_to_color_image_guess
FN:26,_RNvNtCsj01YzKchgFg_8mdmdview12image_decode26take_forced_svg_dimensions
FN:31,_RNvNtCsj01YzKchgFg_8mdmdview12image_decode29take_forced_pixmap_alloc_fail
FN:21,_RNvNtCsj01YzKchgFg_8mdmdview12image_decode29take_forced_raster_dimensions
FN:36,_RNvNtCsj01YzKchgFg_8mdmdview12image_decode30take_forced_guess_format_error
FN:16,_RNvNtCsj01YzKchgFg_8mdmdview12image_decode31take_forced_zero_svg_dimensions
FN:124,_RNvNtCsj01YzKchgFg_8mdmdview12image_decode32svg_bytes_to_color_image_with_bg
FN:86,_RNvNtCsj01YzKchgFg_8mdmdview12image_decode35raster_bytes_to_color_image_with_bg
FN:27,_RNCNvNtCsj01YzKchgFg_8mdmdview12image_decode26take_forced_svg_dimensions0B5_
FN:32,_RNCNvNtCsj01YzKchgFg_8mdmdview12image_decode29take_forced_pixmap_alloc_fail0B5_
FN:22,_RNCNvNtCsj01YzKchgFg_8mdmdview12image_decode29take_forced_raster_dimensions0B5_
FN:37,_RNCNvNtCsj01YzKchgFg_8mdmdview12image_decode30take_forced_guess_format_error0B5_
FN:17,_RNCNvNtCsj01YzKchgFg_8mdmdview12image_decode31take_forced_zero_svg_dimensions0B5_
FNDA:21,_RNvNtCsj01YzKchgFg_8mdmdview12image_decode17raster_dimensions
FNDA:9,_RNvNtCsj01YzKchgFg_8mdmdview12image_decode19pixmap_new_for_test
FNDA:30,_RNvNtCsj01YzKchgFg_8mdmdview12image_decode21raster_exceeds_limits
FNDA:21,_RNvNtCsj01YzKchgFg_8mdmdview12image_decode23guessed_format_for_test
FNDA:1,_RNvNtCsj01YzKchgFg_8mdmdview12image_decode24svg_bytes_to_color_image
FNDA:16,_RNvNtCsj01YzKchgFg_8mdmdview12image_decode26bytes_to_color_image_guess
FNDA:9,_RNvNtCsj01YzKchgFg_8mdmdview12image_decode26take_forced_svg_dimensions
FNDA:9,_RNvNtCsj01YzKchgFg_8mdmdview12image_decode29take_forced_pixmap_alloc_fail
FNDA:12,_RNvNtCsj01YzKchgFg_8mdmdview12image_decode29take_forced_raster_dimensions
FNDA:21,_RNvNtCsj01YzKchgFg_8mdmdview12image_decode30take_forced_guess_format_error
FNDA:9,_RNvNtCsj01YzKchgFg_8mdmdview12image_decode31take_forced_zero_svg_dimensions
FNDA:12,_RNvNtCsj01YzKchgFg_8mdmdview12image_decode32svg_bytes_to_color_image_with_bg
FNDA:19,_RNvNtCsj01YzKchgFg_8mdmdview12image_decode35raster_bytes_to_color_image_with_bg
FNDA:9,_RNCNvNtCsj01YzKchgFg_8mdmdview12image_decode26take_forced_svg_dimensions0B5_
FNDA:9,_RNCNvNtCsj01YzKchgFg_8mdmdview12image_decode29take_forced_pixmap_alloc_fail0B5_
FNDA:12,_RNCNvNtCsj01YzKchgFg_8mdmdview12image_decode29take_forced_raster_dimensions0B5_
FNDA:21,_RNCNvNtCsj01YzKchgFg_8mdmdview12image_decode30take_forced_guess_format_error0B5_
FNDA:9,_RNCNvNtCsj01YzKchgFg_8mdmdview12image_decode31take_forced_zero_svg_dimensions0B5_
FNF:18
FNH:18
DA:16,9
DA:17,9
DA:18,9
DA:21,12
DA:22,12
DA:23,12
DA:26,9
DA:27,9
DA:28,9
DA:31,9
DA:32,9
DA:33,9
DA:36,21
DA:37,21
DA:38,21
DA:45,1
DA:46,1
DA:47,1
DA:49,21
DA:50,21
DA:51,21
DA:53,21
DA:54,1
DA:55,1
DA:56,1
DA:57,1
DA:58,20
DA:59,20
DA:60,21
DA:62,21
DA:63,21
DA:64,20
DA:65,21
DA:67,30
DA:68,30
DA:69,2
DA:70,28
DA:71,28
DA:72,4
DA:73,24
DA:74,24
DA:75,24
DA:76,30
DA:78,9
DA:80,9
DA:81,1
DA:82,8
DA:83,8
DA:84,9
DA:86,19
DA:87,19
DA:88,19
DA:89,19
DA:90,19
DA:91,1
DA:92,18
DA:93,18
DA:94,13
DA:95,1
DA:96,12
DA:97,5
DA:98,17
DA:99,12
DA:100,12
DA:102,12
DA:103,1
DA:105,11
DA:107,12
DA:108,1
DA:109,11
DA:110,11
DA:111,11
DA:112,1
DA:113,1
DA:114,1
DA:115,1
DA:116,1
DA:117,1
DA:118,1
DA:119,1
DA:120,10
DA:121,11
DA:122,19
DA:124,12
DA:125,12
DA:126,12
DA:127,12
DA:128,12
DA:129,12
DA:130,12
DA:131,12
DA:132,12
DA:133,9
DA:134,9
DA:135,9
DA:137,9
DA:138,1
DA:139,1
DA:140,8
DA:142,9
DA:143,1
DA:144,1
DA:145,8
DA:146,9
DA:147,2
DA:148,2
DA:149,7
DA:150,9
DA:151,9
DA:152,3
DA:153,3
DA:154,3
DA:155,6
DA:156,9
DA:157,8
DA:158,1
DA:159,1
DA:160,7
DA:161,8
DA:162,8
DA:163,8
DA:164,8
DA:165,8
DA:166,12
DA:168,16
DA:169,16
DA:170,16
DA:171,16
DA:172,16
DA:173,11
DA:174,5
DA:175,5
DA:176,16
BRF:0
BRH:0
LF:138
LH:138
end_of_record
SF:C:\language\mdmdview\src\main.rs
FN:108,_RINvCshLx96STFYyl_8mdmdview10next_valueINtNtNtCs98nLQ3gaCym_5alloc3vec9into_iter8IntoIterNtNtBI_6string6StringEEB2_
FN:44,_RINvCshLx96STFYyl_8mdmdview14parse_cli_fromINtNtCs98nLQ3gaCym_5alloc3vec3VecNtNtBK_6string6StringEEB2_
FN:113,_RNCINvCshLx96STFYyl_8mdmdview10next_valueINtNtNtCs98nLQ3gaCym_5alloc3vec9into_iter8IntoIterNtNtBK_6string6StringEE0B4_
FN:147,_RNCNvCshLx96STFYyl_8mdmdview9parse_f320B3_
FN:153,_RNCNvCshLx96STFYyl_8mdmdview9parse_u320B3_
FN:159,_RNCNvCshLx96STFYyl_8mdmdview9parse_u640B3_
FN:116,_RNvCshLx96STFYyl_8mdmdview11parse_theme
FN:385,_RNvCshLx96STFYyl_8mdmdview15create_app_icon
FN:124,_RNvCshLx96STFYyl_8mdmdview17parse_hex_color32
FN:456,_RNvCshLx96STFYyl_8mdmdview20configure_egui_style
FN:135,_RNvCshLx96STFYyl_8mdmdview27screenshot_background_color
FN:382,_RNvCshLx96STFYyl_8mdmdview4main
FN:144,_RNvCshLx96STFYyl_8mdmdview9parse_f32
FN:150,_RNvCshLx96STFYyl_8mdmdview9parse_u32
FN:156,_RNvCshLx96STFYyl_8mdmdview9parse_u64
FNDA:32,_RINvCshLx96STFYyl_8mdmdview10next_valueINtNtNtCs98nLQ3gaCym_5alloc3vec9into_iter8IntoIterNtNtBI_6string6StringEEB2_
FNDA:23,_RINvCshLx96STFYyl_8mdmdview14parse_cli_fromINtNtCs98nLQ3gaCym_5alloc3vec3VecNtNtBK_6string6StringEEB2_
FNDA:10,_RNCINvCshLx96STFYyl_8mdmdview10next_valueINtNtNtCs98nLQ3gaCym_5alloc3vec9into_iter8IntoIterNtNtBK_6string6StringEE0B4_
FNDA:4,_RNCNvCshLx96STFYyl_8mdmdview9parse_f320B3_
FNDA:2,_RNCNvCshLx96STFYyl_8mdmdview9parse_u320B3_
FNDA:2,_RNCNvCshLx96STFYyl_8mdmdview9parse_u640B3_
FNDA:3,_RNvCshLx96STFYyl_8mdmdview11parse_theme
FNDA:2,_RNvCshLx96STFYyl_8mdmdview15create_app_icon
FNDA:7,_RNvCshLx96STFYyl_8mdmdview17parse_hex_color32
FNDA:2,_RNvCshLx96STFYyl_8mdmdview20configure_egui_style
FNDA:3,_RNvCshLx96STFYyl_8mdmdview27screenshot_background_color
FNDA:1,_RNvCshLx96STFYyl_8mdmdview4main
FNDA:9,_RNvCshLx96STFYyl_8mdmdview9parse_f32
FNDA:4,_RNvCshLx96STFYyl_8mdmdview9parse_u32
FNDA:4,_RNvCshLx96STFYyl_8mdmdview9parse_u64
FNF:15
FNH:15
DA:44,23
DA:45,23
DA:46,23
DA:48,23
DA:49,23
DA:51,43
DA:52,37
DA:53,37
DA:54,4
DA:55,4
DA:56,3
DA:58,33
DA:59,3
DA:60,2
DA:62,30
DA:63,3
DA:64,2
DA:66,27
DA:67,3
DA:68,2
DA:70,24
DA:71,4
DA:72,3
DA:74,20
DA:75,3
DA:76,2
DA:78,17
DA:79,16
DA:80,4
DA:81,3
DA:82,2
DA:84,12
DA:85,3
DA:86,2
DA:88,9
DA:89,3
DA:90,2
DA:92,6
DA:93,2
DA:94,1
DA:96,4
DA:97,1
DA:101,6
DA:102,1
DA:103,5
DA:105,5
DA:106,23
DA:108,32
DA:109,32
DA:110,32
DA:112,32
DA:113,32
DA:114,32
DA:116,3
DA:117,3
DA:118,3
DA:119,2
DA:120,1
DA:122,3
DA:124,7
DA:125,7
DA:126,7
DA:127,2
DA:128,5
DA:129,5
DA:130,4
DA:131,3
DA:132,2
DA:133,7
DA:135,3
DA:136,3
DA:137,2
DA:138,1
DA:139,1
DA:140,1
DA:141,2
DA:142,3
DA:144,9
DA:145,9
DA:146,9
DA:147,9
DA:148,9
DA:150,4
DA:151,4
DA:152,4
DA:153,4
DA:154,4
DA:156,4
DA:157,4
DA:158,4
DA:159,4
DA:160,4
DA:382,1
DA:385,2
DA:387,2
DA:388,2
DA:390,64
DA:391,2048
DA:392,2048
DA:394,248
DA:395,1800
DA:397,232
DA:398,1568
DA:400,250
DA:401,70
DA:402,180
DA:403,130
DA:405,50
DA:407,1318
DA:409,150
DA:410,18
DA:411,132
DA:412,90
DA:414,42
DA:416,1168
DA:418,150
DA:419,18
DA:420,132
DA:421,78
DA:423,54
DA:425,1018
DA:427,126
DA:428,102
DA:430,24
DA:432,892
DA:434,150
DA:435,90
DA:437,60
DA:441,742
DA:444,2048
DA:448,2
DA:449,2
DA:450,2
DA:451,2
DA:452,2
DA:453,2
DA:456,2
DA:457,2
DA:460,2
DA:461,2
DA:462,2
DA:465,2
DA:466,2
DA:469,2
DA:470,2
DA:473,2
DA:474,1
DA:475,1
DA:476,1
DA:477,1
DA:478,1
DA:479,1
DA:481,2
DA:485,2
BRF:0
BRH:0
LF:158
LH:158
end_of_record
SF:C:\language\mdmdview\src\markdown_renderer.rs
FN:820,_RINvMs2_NtCsj01YzKchgFg_8mdmdview17markdown_rendererNtB6_16MarkdownRenderer18spawn_named_threadNCNvB2_18spawn_image_loader0EB8_
FN:4113,_RNCNCNCNCNCNCNCNvMs2_NtCsj01YzKchgFg_8mdmdview17markdown_rendererNtBj_16MarkdownRenderer25render_table_tablebuilders4_000s3_0000Bl_
FN:4114,_RNCNCNCNCNCNCNCNvMs2_NtCsj01YzKchgFg_8mdmdview17markdown_rendererNtBj_16MarkdownRenderer25render_table_tablebuilders4_000s3_000s_0Bl_
FN:4006,_RNCNCNCNCNCNCNvMs2_NtCsj01YzKchgFg_8mdmdview17markdown_rendererNtBh_16MarkdownRenderer25render_table_tablebuilders4_000s0_000Bj_
FN:4076,_RNCNCNCNCNCNCNvMs2_NtCsj01YzKchgFg_8mdmdview17markdown_rendererNtBh_16MarkdownRenderer25render_table_tablebuilders4_000s2_000Bj_
FN:4110,_RNCNCNCNCNCNCNvMs2_NtCsj01YzKchgFg_8mdmdview17markdown_rendererNtBh_16MarkdownRenderer25render_table_tablebuilders4_000s3_000Bj_
FN:3995,_RNCNCNCNCNCNvMs2_NtCsj01YzKchgFg_8mdmdview17markdown_rendererNtBf_16MarkdownRenderer25render_table_tablebuilders4_000s0_00Bh_
FN:4008,_RNCNCNCNCNCNvMs2_NtCsj01YzKchgFg_8mdmdview17markdown_rendererNtBf_16MarkdownRenderer25render_table_tablebuilders4_000s0_0s_0Bh_
FN:4073,_RNCNCNCNCNCNvMs2_NtCsj01YzKchgFg_8mdmdview17markdown_rendererNtBf_16MarkdownRenderer25render_table_tablebuilders4_000s2_00Bh_
FN:4104,_RNCNCNCNCNCNvMs2_NtCsj01YzKchgFg_8mdmdview17markdown_rendererNtBf_16MarkdownRenderer25render_table_tablebuilders4_000s3_00Bh_
FN:3545,_RNCNCNCNCNvMs2_NtCsj01YzKchgFg_8mdmdview17markdown_rendererNtBd_16MarkdownRenderer17render_code_block00s_00Bf_
FN:3970,_RNCNCNCNCNvMs2_NtCsj01YzKchgFg_8mdmdview17markdown_rendererNtBd_16MarkdownRenderer25render_table_tablebuilders4_0000Bf_
FN:3985,_RNCNCNCNCNvMs2_NtCsj01YzKchgFg_8mdmdview17markdown_rendererNtBd_16MarkdownRenderer25render_table_tablebuilders4_000s0_0Bf_
FN:4014,_RNCNCNCNCNvMs2_NtCsj01YzKchgFg_8mdmdview17markdown_rendererNtBd_16MarkdownRenderer25render_table_tablebuilders4_000s1_0Bf_
FN:4071,_RNCNCNCNCNvMs2_NtCsj01YzKchgFg_8mdmdview17markdown_rendererNtBd_16MarkdownRenderer25render_table_tablebuilders4_000s2_0Bf_
FN:4094,_RNCNCNCNCNvMs2_NtCsj01YzKchgFg_8mdmdview17markdown_rendererNtBd_16MarkdownRenderer25render_table_tablebuilders4_000s3_0Bf_
FN:3983,_RNCNCNCNCNvMs2_NtCsj01YzKchgFg_8mdmdview17markdown_rendererNtBd_16MarkdownRenderer25render_table_tablebuilders4_000s_0Bf_
FN:3524,_RNCNCNCNvMs2_NtCsj01YzKchgFg_8mdmdview17markdown_rendererNtBb_16MarkdownRenderer17render_code_block000Bd_
FN:3533,_RNCNCNCNvMs2_NtCsj01YzKchgFg_8mdmdview17markdown_rendererNtBb_16MarkdownRenderer17render_code_block00s_0Bd_
FN:3964,_RNCNCNCNvMs2_NtCsj01YzKchgFg_8mdmdview17markdown_rendererNtBb_16MarkdownRenderer25render_table_tablebuilders4_000Bd_
FN:3509,_RNCNCNvMs2_NtCsj01YzKchgFg_8mdmdview17markdown_rendererNtB9_16MarkdownRenderer17render_code_block00Bb_
FN:3483,_RNCNCNvMs2_NtCsj01YzKchgFg_8mdmdview17markdown_rendererNtB9_16MarkdownRenderer17render_list_block00Bb_
FN:4228,_RNCNCNvMs2_NtCsj01YzKchgFg_8mdmdview17markdown_rendererNtB9_16MarkdownRenderer19resolve_table_rectss0_00Bb_
FN:4232,_RNCNCNvMs2_NtCsj01YzKchgFg_8mdmdview17markdown_rendererNtB9_16MarkdownRenderer19resolve_table_rectss3_00Bb_
FN:4233,_RNCNCNvMs2_NtCsj01YzKchgFg_8mdmdview17markdown_rendererNtB9_16MarkdownRenderer19resolve_table_rectss4_00Bb_
FN:4236,_RNCNCNvMs2_NtCsj01YzKchgFg_8mdmdview17markdown_rendererNtB9_16MarkdownRenderer19resolve_table_rectss6_00Bb_
FN:4237,_RNCNCNvMs2_NtCsj01YzKchgFg_8mdmdview17markdown_rendererNtB9_16MarkdownRenderer19resolve_table_rectss7_00Bb_
FN:4247,_RNCNCNvMs2_NtCsj01YzKchgFg_8mdmdview17markdown_rendererNtB9_16MarkdownRenderer19resolve_table_rectss8_00Bb_
FN:4227,_RNCNCNvMs2_NtCsj01YzKchgFg_8mdmdview17markdown_rendererNtB9_16MarkdownRenderer19resolve_table_rectss_00Bb_
FN:3095,_RNCNCNvMs2_NtCsj01YzKchgFg_8mdmdview17markdown_rendererNtB9_16MarkdownRenderer20measure_inline_spans00Bb_
FN:3132,_RNCNCNvMs2_NtCsj01YzKchgFg_8mdmdview17markdown_rendererNtB9_16MarkdownRenderer20measure_inline_spans0s_0Bb_
FN:3394,_RNCNCNvMs2_NtCsj01YzKchgFg_8mdmdview17markdown_rendererNtB9_16MarkdownRenderer21render_list_paragraph00Bb_
FN:3962,_RNCNCNvMs2_NtCsj01YzKchgFg_8mdmdview17markdown_rendererNtB9_16MarkdownRenderer25render_table_tablebuilders4_00Bb_
FN:4257,_RNCNCNvMs2_NtCsj01YzKchgFg_8mdmdview17markdown_rendererNtB9_16MarkdownRenderer25row_needs_height_estimate00Bb_
FN:4298,_RNCNCNvMs2_NtCsj01YzKchgFg_8mdmdview17markdown_rendererNtB9_16MarkdownRenderer27resolve_table_column_widthss_00Bb_
FN:335,_RNCNvMs0_NtCsj01YzKchgFg_8mdmdview17markdown_rendererNtB7_10ImageCache5touch0B9_
FN:326,_RNCNvMs0_NtCsj01YzKchgFg_8mdmdview17markdown_rendererNtB7_10ImageCache6remove0B9_
FN:2166,_RNCNvMs2_NtCsj01YzKchgFg_8mdmdview17markdown_rendererNtB7_16MarkdownRenderer10parse_list0B9_
FN:3441,_RNCNvMs2_NtCsj01YzKchgFg_8mdmdview17markdown_rendererNtB7_16MarkdownRenderer11render_list0B9_
FN:3452,_RNCNvMs2_NtCsj01YzKchgFg_8mdmdview17markdown_rendererNtB7_16MarkdownRenderer11render_lists_0B9_
FN:2523,_RNCNvMs2_NtCsj01YzKchgFg_8mdmdview17markdown_rendererNtB7_16MarkdownRenderer12render_to_ui0B9_
FN:413,_RNCNvMs2_NtCsj01YzKchgFg_8mdmdview17markdown_rendererNtB7_16MarkdownRenderer14cell_fragments0B9_
FN:3250,_RNCNvMs2_NtCsj01YzKchgFg_8mdmdview17markdown_rendererNtB7_16MarkdownRenderer14to_superscript0B9_
FN:4766,_RNCNvMs2_NtCsj01YzKchgFg_8mdmdview17markdown_rendererNtB7_16MarkdownRenderer15link_at_pointer0B9_
FN:4464,_RNCNvMs2_NtCsj01YzKchgFg_8mdmdview17markdown_rendererNtB7_16MarkdownRenderer15row_height_hint0B9_
FN:4465,_RNCNvMs2_NtCsj01YzKchgFg_8mdmdview17markdown_rendererNtB7_16MarkdownRenderer15row_height_hints_0B9_
FN:533,_RNCNvMs2_NtCsj01YzKchgFg_8mdmdview17markdown_rendererNtB7_16MarkdownRenderer16build_layout_job0B9_
FN:4724,_RNCNvMs2_NtCsj01YzKchgFg_8mdmdview17markdown_rendererNtB7_16MarkdownRenderer17cached_layout_job0B9_
FN:3182,_RNCNvMs2_NtCsj01YzKchgFg_8mdmdview17markdown_rendererNtB7_16MarkdownRenderer17expand_shortcodes0B9_
FN:2547,_RNCNvMs2_NtCsj01YzKchgFg_8mdmdview17markdown_rendererNtB7_16MarkdownRenderer17fix_unicode_chars0B9_
FN:3508,_RNCNvMs2_NtCsj01YzKchgFg_8mdmdview17markdown_rendererNtB7_16MarkdownRenderer17render_code_block0B9_
FN:3481,_RNCNvMs2_NtCsj01YzKchgFg_8mdmdview17markdown_rendererNtB7_16MarkdownRenderer17render_list_block0B9_
FN:467,_RNCNvMs2_NtCsj01YzKchgFg_8mdmdview17markdown_rendererNtB7_16MarkdownRenderer18highlight_segments0B9_
FN:2682,_RNCNvMs2_NtCsj01YzKchgFg_8mdmdview17markdown_rendererNtB7_16MarkdownRenderer18render_inline_span0B9_
FN:2758,_RNCNvMs2_NtCsj01YzKchgFg_8mdmdview17markdown_rendererNtB7_16MarkdownRenderer18render_inline_spans0_0B9_
FN:2703,_RNCNvMs2_NtCsj01YzKchgFg_8mdmdview17markdown_rendererNtB7_16MarkdownRenderer18render_inline_spans_0B9_
FN:776,_RNCNvMs2_NtCsj01YzKchgFg_8mdmdview17markdown_rendererNtB7_16MarkdownRenderer18spawn_image_loader0B9_
FN:1737,_RNCNvMs2_NtCsj01YzKchgFg_8mdmdview17markdown_rendererNtB7_16MarkdownRenderer19collect_blockquotes0B9_
FN:2437,_RNCNvMs2_NtCsj01YzKchgFg_8mdmdview17markdown_rendererNtB7_16MarkdownRenderer19render_element_body0B9_
FN:2475,_RNCNvMs2_NtCsj01YzKchgFg_8mdmdview17markdown_rendererNtB7_16MarkdownRenderer19render_element_bodys_0B9_
FN:2535,_RNCNvMs2_NtCsj01YzKchgFg_8mdmdview17markdown_rendererNtB7_16MarkdownRenderer19render_inline_spans0B9_
FN:4226,_RNCNvMs2_NtCsj01YzKchgFg_8mdmdview17markdown_rendererNtB7_16MarkdownRenderer19resolve_table_rects0B9_
FN:4228,_RNCNvMs2_NtCsj01YzKchgFg_8mdmdview17markdown_rendererNtB7_16MarkdownRenderer19resolve_table_rectss0_0B9_
FN:4229,_RNCNvMs2_NtCsj01YzKchgFg_8mdmdview17markdown_rendererNtB7_16MarkdownRenderer19resolve_table_rectss1_0B9_
FN:4231,_RNCNvMs2_NtCsj01YzKchgFg_8mdmdview17markdown_rendererNtB7_16MarkdownRenderer19resolve_table_rectss2_0B9_
FN:4232,_RNCNvMs2_NtCsj01YzKchgFg_8mdmdview17markdown_rendererNtB7_16MarkdownRenderer19resolve_table_rectss3_0B9_
FN:4233,_RNCNvMs2_NtCsj01YzKchgFg_8mdmdview17markdown_rendererNtB7_16MarkdownRenderer19resolve_table_rectss4_0B9_
FN:4235,_RNCNvMs2_NtCsj01YzKchgFg_8mdmdview17markdown_rendererNtB7_16MarkdownRenderer19resolve_table_rectss5_0B9_
FN:4236,_RNCNvMs2_NtCsj01YzKchgFg_8mdmdview17markdown_rendererNtB7_16MarkdownRenderer19resolve_table_rectss6_0B9_
FN:4237,_RNCNvMs2_NtCsj01YzKchgFg_8mdmdview17markdown_rendererNtB7_16MarkdownRenderer19resolve_table_rectss7_0B9_
FN:4246,_RNCNvMs2_NtCsj01YzKchgFg_8mdmdview17markdown_rendererNtB7_16MarkdownRenderer19resolve_table_rectss8_0B9_
FN:4227,_RNCNvMs2_NtCsj01YzKchgFg_8mdmdview17markdown_rendererNtB7_16MarkdownRenderer19resolve_table_rectss_0B9_
FN:3065,_RNCNvMs2_NtCsj01YzKchgFg_8mdmdview17markdown_rendererNtB7_16MarkdownRenderer20measure_inline_spans0B9_
FN:4680,_RNCNvMs2_NtCsj01YzKchgFg_8mdmdview17markdown_rendererNtB7_16MarkdownRenderer20paint_table_text_job0B9_
FN:4699,_RNCNvMs2_NtCsj01YzKchgFg_8mdmdview17markdown_rendererNtB7_16MarkdownRenderer20paint_table_text_jobs_0B9_
FN:4803,_RNCNvMs2_NtCsj01YzKchgFg_8mdmdview17markdown_rendererNtB7_16MarkdownRenderer20resolve_table_widths0B9_
FN:4819,_RNCNvMs2_NtCsj01YzKchgFg_8mdmdview17markdown_rendererNtB7_16MarkdownRenderer20resolve_table_widthss0_0B9_
FN:4809,_RNCNvMs2_NtCsj01YzKchgFg_8mdmdview17markdown_rendererNtB7_16MarkdownRenderer20resolve_table_widthss_0B9_
FN:4892,_RNCNvMs2_NtCsj01YzKchgFg_8mdmdview17markdown_rendererNtB7_16MarkdownRenderer20set_highlight_phrase0B9_
FN:4893,_RNCNvMs2_NtCsj01YzKchgFg_8mdmdview17markdown_rendererNtB7_16MarkdownRenderer20set_highlight_phrases_0B9_
FN:3379,_RNCNvMs2_NtCsj01YzKchgFg_8mdmdview17markdown_rendererNtB7_16MarkdownRenderer21render_list_paragraph0B9_
FN:1468,_RNCNvMs2_NtCsj01YzKchgFg_8mdmdview17markdown_rendererNtB7_16MarkdownRenderer21restore_pipe_sentinel0B9_
FN:3776,_RNCNvMs2_NtCsj01YzKchgFg_8mdmdview17markdown_rendererNtB7_16MarkdownRenderer22column_stats_for_table0B9_
FN:2998,_RNCNvMs2_NtCsj01YzKchgFg_8mdmdview17markdown_rendererNtB7_16MarkdownRenderer22emoji_key_for_grapheme0B9_
FN:3005,_RNCNvMs2_NtCsj01YzKchgFg_8mdmdview17markdown_rendererNtB7_16MarkdownRenderer22emoji_key_for_graphemes_0B9_
FN:4636,_RNCNvMs2_NtCsj01YzKchgFg_8mdmdview17markdown_rendererNtB7_16MarkdownRenderer22render_overhauled_cell0B9_
FN:5209,_RNCNvMs2_NtCsj01YzKchgFg_8mdmdview17markdown_rendererNtB7_16MarkdownRenderer24find_syntax_for_language0B9_
FN:4374,_RNCNvMs2_NtCsj01YzKchgFg_8mdmdview17markdown_rendererNtB7_16MarkdownRenderer25estimate_table_row_height0B9_
FN:4381,_RNCNvMs2_NtCsj01YzKchgFg_8mdmdview17markdown_rendererNtB7_16MarkdownRenderer25estimate_table_row_heights_0B9_
FN:3844,_RNCNvMs2_NtCsj01YzKchgFg_8mdmdview17markdown_rendererNtB7_16MarkdownRenderer25render_table_tablebuilder0B9_
FN:3875,_RNCNvMs2_NtCsj01YzKchgFg_8mdmdview17markdown_rendererNtB7_16MarkdownRenderer25render_table_tablebuilders0_0B9_
FN:3888,_RNCNvMs2_NtCsj01YzKchgFg_8mdmdview17markdown_rendererNtB7_16MarkdownRenderer25render_table_tablebuilders1_0B9_
FN:3909,_RNCNvMs2_NtCsj01YzKchgFg_8mdmdview17markdown_rendererNtB7_16MarkdownRenderer25render_table_tablebuilders2_0B9_
FN:3914,_RNCNvMs2_NtCsj01YzKchgFg_8mdmdview17markdown_rendererNtB7_16MarkdownRenderer25render_table_tablebuilders3_0B9_
FN:3960,_RNCNvMs2_NtCsj01YzKchgFg_8mdmdview17markdown_rendererNtB7_16MarkdownRenderer25render_table_tablebuilders4_0B9_
FN:4190,_RNCNvMs2_NtCsj01YzKchgFg_8mdmdview17markdown_rendererNtB7_16MarkdownRenderer25render_table_tablebuilders5_0B9_
FN:3853,_RNCNvMs2_NtCsj01YzKchgFg_8mdmdview17markdown_rendererNtB7_16MarkdownRenderer25render_table_tablebuilders_0B9_
FN:4256,_RNCNvMs2_NtCsj01YzKchgFg_8mdmdview17markdown_rendererNtB7_16MarkdownRenderer25row_needs_height_estimate0B9_
FN:4411,_RNCNvMs2_NtCsj01YzKchgFg_8mdmdview17markdown_rendererNtB7_16MarkdownRenderer26estimate_table_cell_height0B9_
FN:4437,_RNCNvMs2_NtCsj01YzKchgFg_8mdmdview17markdown_rendererNtB7_16MarkdownRenderer27estimate_table_image_height0B9_
FN:4287,_RNCNvMs2_NtCsj01YzKchgFg_8mdmdview17markdown_rendererNtB7_16MarkdownRenderer27resolve_table_column_widths0B9_
FN:4294,_RNCNvMs2_NtCsj01YzKchgFg_8mdmdview17markdown_rendererNtB7_16MarkdownRenderer27resolve_table_column_widthss_0B9_
FN:4324,_RNCNvMs2_NtCsj01YzKchgFg_8mdmdview17markdown_rendererNtB7_16MarkdownRenderer28estimate_table_column_widths0B9_
FN:4330,_RNCNvMs2_NtCsj01YzKchgFg_8mdmdview17markdown_rendererNtB7_16MarkdownRenderer28estimate_table_column_widthss_0B9_
FN:2840,_RNCNvMs2_NtCsj01YzKchgFg_8mdmdview17markdown_rendererNtB7_16MarkdownRenderer43render_text_segment_with_optional_highlight0B9_
FN:220,_RNCNvMs_NtCsj01YzKchgFg_8mdmdview17markdown_rendererNtB6_15CellLayoutCache6insert0B8_
FN:71,_RNCNvNtCsj01YzKchgFg_8mdmdview17markdown_renderer22force_parse_error_once0B5_
FN:56,_RNCNvNtCsj01YzKchgFg_8mdmdview17markdown_renderer23render_action_triggered0B5_
FN:81,_RNCNvNtCsj01YzKchgFg_8mdmdview17markdown_renderer23take_forced_parse_error0B5_
FN:66,_RNCNvNtCsj01YzKchgFg_8mdmdview17markdown_renderer26take_forced_table_policies0B5_
FN:330,_RNvMs0_NtCsj01YzKchgFg_8mdmdview17markdown_rendererNtB5_10ImageCache12contains_key
FN:299,_RNvMs0_NtCsj01YzKchgFg_8mdmdview17markdown_rendererNtB5_10ImageCache3get
FN:291,_RNvMs0_NtCsj01YzKchgFg_8mdmdview17markdown_rendererNtB5_10ImageCache3new
FN:334,_RNvMs0_NtCsj01YzKchgFg_8mdmdview17markdown_rendererNtB5_10ImageCache5touch
FN:307,_RNvMs0_NtCsj01YzKchgFg_8mdmdview17markdown_rendererNtB5_10ImageCache6insert
FN:324,_RNvMs0_NtCsj01YzKchgFg_8mdmdview17markdown_rendererNtB5_10ImageCache6remove
FN:847,_RNvMs2_NtCsj01YzKchgFg_8mdmdview17markdown_rendererNtB5_16MarkdownRenderer10font_sizes
FN:2149,_RNvMs2_NtCsj01YzKchgFg_8mdmdview17markdown_rendererNtB5_16MarkdownRenderer10parse_list
FN:5239,_RNvMs2_NtCsj01YzKchgFg_8mdmdview17markdown_rendererNtB5_16MarkdownRenderer10reset_zoom
FN:3703,_RNvMs2_NtCsj01YzKchgFg_8mdmdview17markdown_rendererNtB5_16MarkdownRenderer11align_to_u8
FN:1430,_RNvMs2_NtCsj01YzKchgFg_8mdmdview17markdown_rendererNtB5_16MarkdownRenderer11fence_start
FN:2347,_RNvMs2_NtCsj01YzKchgFg_8mdmdview17markdown_rendererNtB5_16MarkdownRenderer11parse_table
FN:3412,_RNvMs2_NtCsj01YzKchgFg_8mdmdview17markdown_rendererNtB5_16MarkdownRenderer11render_list
FN:1079,_RNvMs2_NtCsj01YzKchgFg_8mdmdview17markdown_rendererNtB5_16MarkdownRenderer11tab_advance
FN:1452,_RNvMs2_NtCsj01YzKchgFg_8mdmdview17markdown_rendererNtB5_16MarkdownRenderer12is_fence_end
FN:3792,_RNvMs2_NtCsj01YzKchgFg_8mdmdview17markdown_rendererNtB5_16MarkdownRenderer12render_table
FN:2510,_RNvMs2_NtCsj01YzKchgFg_8mdmdview17markdown_rendererNtB5_16MarkdownRenderer12render_to_ui
FN:4971,_RNvMs2_NtCsj01YzKchgFg_8mdmdview17markdown_rendererNtB5_16MarkdownRenderer12set_base_dir
FN:4842,_RNvMs2_NtCsj01YzKchgFg_8mdmdview17markdown_rendererNtB5_16MarkdownRenderer12trigger_link
FN:1503,_RNvMs2_NtCsj01YzKchgFg_8mdmdview17markdown_rendererNtB5_16MarkdownRenderer13parse_element
FN:3678,_RNvMs2_NtCsj01YzKchgFg_8mdmdview17markdown_rendererNtB5_16MarkdownRenderer14alignment_hash
FN:406,_RNvMs2_NtCsj01YzKchgFg_8mdmdview17markdown_rendererNtB5_16MarkdownRenderer14cell_fragments
FN:3147,_RNvMs2_NtCsj01YzKchgFg_8mdmdview17markdown_rendererNtB5_16MarkdownRenderer14is_known_emoji
FN:5245,_RNvMs2_NtCsj01YzKchgFg_8mdmdview17markdown_rendererNtB5_16MarkdownRenderer14set_zoom_scale
FN:3248,_RNvMs2_NtCsj01YzKchgFg_8mdmdview17markdown_rendererNtB5_16MarkdownRenderer14to_superscript
FN:4867,_RNvMs2_NtCsj01YzKchgFg_8mdmdview17markdown_rendererNtB5_16MarkdownRenderer15element_rect_at
FN:4862,_RNvMs2_NtCsj01YzKchgFg_8mdmdview17markdown_rendererNtB5_16MarkdownRenderer15header_rect_for
FN:2791,_RNvMs2_NtCsj01YzKchgFg_8mdmdview17markdown_rendererNtB5_16MarkdownRenderer15is_external_url
FN:4748,_RNvMs2_NtCsj01YzKchgFg_8mdmdview17markdown_rendererNtB5_16MarkdownRenderer15link_at_pointer
FN:4459,_RNvMs2_NtCsj01YzKchgFg_8mdmdview17markdown_rendererNtB5_16MarkdownRenderer15row_height_hint
FN:1108,_RNvMs2_NtCsj01YzKchgFg_8mdmdview17markdown_rendererNtB5_16MarkdownRenderer15table_line_info
FN:667,_RNvMs2_NtCsj01YzKchgFg_8mdmdview17markdown_rendererNtB5_16MarkdownRenderer16append_code_span
FN:4490,_RNvMs2_NtCsj01YzKchgFg_8mdmdview17markdown_rendererNtB5_16MarkdownRenderer16begin_table_pass
FN:511,_RNvMs2_NtCsj01YzKchgFg_8mdmdview17markdown_rendererNtB5_16MarkdownRenderer16build_layout_job
FN:3720,_RNvMs2_NtCsj01YzKchgFg_8mdmdview17markdown_rendererNtB5_16MarkdownRenderer16compute_table_id
FN:2783,_RNvMs2_NtCsj01YzKchgFg_8mdmdview17markdown_rendererNtB5_16MarkdownRenderer16extract_fragment
FN:4871,_RNvMs2_NtCsj01YzKchgFg_8mdmdview17markdown_rendererNtB5_16MarkdownRenderer16layout_signature
FN:1158,_RNvMs2_NtCsj01YzKchgFg_8mdmdview17markdown_rendererNtB5_16MarkdownRenderer16list_marker_info
FN:3713,_RNvMs2_NtCsj01YzKchgFg_8mdmdview17markdown_rendererNtB5_16MarkdownRenderer16next_table_index
FN:2113,_RNvMs2_NtCsj01YzKchgFg_8mdmdview17markdown_rendererNtB5_16MarkdownRenderer16parse_code_block
FN:1629,_RNvMs2_NtCsj01YzKchgFg_8mdmdview17markdown_rendererNtB5_16MarkdownRenderer16spans_plain_text
FN:3687,_RNvMs2_NtCsj01YzKchgFg_8mdmdview17markdown_rendererNtB5_16MarkdownRenderer17alignment_to_egui
FN:641,_RNvMs2_NtCsj01YzKchgFg_8mdmdview17markdown_rendererNtB5_16MarkdownRenderer17append_plain_span
FN:4710,_RNvMs2_NtCsj01YzKchgFg_8mdmdview17markdown_rendererNtB5_16MarkdownRenderer17cached_layout_job
FN:438,_RNvMs2_NtCsj01YzKchgFg_8mdmdview17markdown_rendererNtB5_16MarkdownRenderer17cell_single_emoji
FN:5008,_RNvMs2_NtCsj01YzKchgFg_8mdmdview17markdown_rendererNtB5_16MarkdownRenderer17enqueue_image_job
FN:3171,_RNvMs2_NtCsj01YzKchgFg_8mdmdview17markdown_rendererNtB5_16MarkdownRenderer17expand_shortcodes
FN:3809,_RNvMs2_NtCsj01YzKchgFg_8mdmdview17markdown_rendererNtB5_16MarkdownRenderer17extend_table_rect
FN:2545,_RNvMs2_NtCsj01YzKchgFg_8mdmdview17markdown_rendererNtB5_16MarkdownRenderer17fix_unicode_chars
FN:3638,_RNvMs2_NtCsj01YzKchgFg_8mdmdview17markdown_rendererNtB5_16MarkdownRenderer17hash_inline_spans
FN:4852,_RNvMs2_NtCsj01YzKchgFg_8mdmdview17markdown_rendererNtB5_16MarkdownRenderer17is_allowed_scheme
FN:4495,_RNvMs2_NtCsj01YzKchgFg_8mdmdview17markdown_rendererNtB5_16MarkdownRenderer17note_row_rendered
FN:3492,_RNvMs2_NtCsj01YzKchgFg_8mdmdview17markdown_rendererNtB5_16MarkdownRenderer17render_code_block
FN:3469,_RNvMs2_NtCsj01YzKchgFg_8mdmdview17markdown_rendererNtB5_16MarkdownRenderer17render_list_block
FN:4475,_RNvMs2_NtCsj01YzKchgFg_8mdmdview17markdown_rendererNtB5_16MarkdownRenderer17update_row_height
FN:4919,_RNvMs2_NtCsj01YzKchgFg_8mdmdview17markdown_rendererNtB5_16MarkdownRenderer18element_plain_text
FN:463,_RNvMs2_NtCsj01YzKchgFg_8mdmdview17markdown_rendererNtB5_16MarkdownRenderer18highlight_segments
FN:5126,_RNvMs2_NtCsj01YzKchgFg_8mdmdview17markdown_rendererNtB5_16MarkdownRenderer18image_source_stale
FN:1060,_RNvMs2_NtCsj01YzKchgFg_8mdmdview17markdown_rendererNtB5_16MarkdownRenderer18is_html_line_break
FN:5027,_RNvMs2_NtCsj01YzKchgFg_8mdmdview17markdown_rendererNtB5_16MarkdownRenderer18note_image_failure
FN:2053,_RNvMs2_NtCsj01YzKchgFg_8mdmdview17markdown_rendererNtB5_16MarkdownRenderer18parse_inline_spans
FN:4979,_RNvMs2_NtCsj01YzKchgFg_8mdmdview17markdown_rendererNtB5_16MarkdownRenderer18poll_image_results
FN:2600,_RNvMs2_NtCsj01YzKchgFg_8mdmdview17markdown_rendererNtB5_16MarkdownRenderer18render_inline_span
FN:4781,_RNvMs2_NtCsj01YzKchgFg_8mdmdview17markdown_rendererNtB5_16MarkdownRenderer18render_table_emoji
FN:5036,_RNvMs2_NtCsj01YzKchgFg_8mdmdview17markdown_rendererNtB5_16MarkdownRenderer18resolve_image_path
FN:5016,_RNvMs2_NtCsj01YzKchgFg_8mdmdview17markdown_rendererNtB5_16MarkdownRenderer18should_retry_image
FN:775,_RNvMs2_NtCsj01YzKchgFg_8mdmdview17markdown_rendererNtB5_16MarkdownRenderer18spawn_image_loader
FN:4914,_RNvMs2_NtCsj01YzKchgFg_8mdmdview17markdown_rendererNtB5_16MarkdownRenderer18table_render_stats
FN:4769,_RNvMs2_NtCsj01YzKchgFg_8mdmdview17markdown_rendererNtB5_16MarkdownRenderer19aligned_text_origin
FN:1725,_RNvMs2_NtCsj01YzKchgFg_8mdmdview17markdown_rendererNtB5_16MarkdownRenderer19collect_blockquotes
FN:2988,_RNvMs2_NtCsj01YzKchgFg_8mdmdview17markdown_rendererNtB5_16MarkdownRenderer19copy_text_and_close
FN:3202,_RNvMs2_NtCsj01YzKchgFg_8mdmdview17markdown_rendererNtB5_16MarkdownRenderer19expand_superscripts
FN:4545,_RNvMs2_NtCsj01YzKchgFg_8mdmdview17markdown_rendererNtB5_16MarkdownRenderer19handle_width_change
FN:4885,_RNvMs2_NtCsj01YzKchgFg_8mdmdview17markdown_rendererNtB5_16MarkdownRenderer19has_pending_renders
FN:2413,_RNvMs2_NtCsj01YzKchgFg_8mdmdview17markdown_rendererNtB5_16MarkdownRenderer19render_element_body
FN:2534,_RNvMs2_NtCsj01YzKchgFg_8mdmdview17markdown_rendererNtB5_16MarkdownRenderer19render_inline_spans
FN:4199,_RNvMs2_NtCsj01YzKchgFg_8mdmdview17markdown_rendererNtB5_16MarkdownRenderer19resolve_table_rects
FN:4455,_RNvMs2_NtCsj01YzKchgFg_8mdmdview17markdown_rendererNtB5_16MarkdownRenderer19row_height_fallback
FN:5134,_RNvMs2_NtCsj01YzKchgFg_8mdmdview17markdown_rendererNtB5_16MarkdownRenderer19store_image_texture
FN:4857,_RNvMs2_NtCsj01YzKchgFg_8mdmdview17markdown_rendererNtB5_16MarkdownRenderer19take_pending_anchor
FN:3695,_RNvMs2_NtCsj01YzKchgFg_8mdmdview17markdown_rendererNtB5_16MarkdownRenderer20alignment_for_column
FN:697,_RNvMs2_NtCsj01YzKchgFg_8mdmdview17markdown_rendererNtB5_16MarkdownRenderer20append_text_sections
FN:5110,_RNvMs2_NtCsj01YzKchgFg_8mdmdview17markdown_rendererNtB5_16MarkdownRenderer20disk_image_timestamp
FN:5152,_RNvMs2_NtCsj01YzKchgFg_8mdmdview17markdown_rendererNtB5_16MarkdownRenderer20embedded_image_bytes
FN:3297,_RNvMs2_NtCsj01YzKchgFg_8mdmdview17markdown_rendererNtB5_16MarkdownRenderer20generate_emoji_image
FN:3062,_RNvMs2_NtCsj01YzKchgFg_8mdmdview17markdown_rendererNtB5_16MarkdownRenderer20measure_inline_spans
FN:4567,_RNvMs2_NtCsj01YzKchgFg_8mdmdview17markdown_rendererNtB5_16MarkdownRenderer20paint_table_dividers
FN:4674,_RNvMs2_NtCsj01YzKchgFg_8mdmdview17markdown_rendererNtB5_16MarkdownRenderer20paint_table_text_job
FN:3627,_RNvMs2_NtCsj01YzKchgFg_8mdmdview17markdown_rendererNtB5_16MarkdownRenderer20render_mermaid_block
FN:2855,_RNvMs2_NtCsj01YzKchgFg_8mdmdview17markdown_rendererNtB5_16MarkdownRenderer20render_plain_segment
FN:4792,_RNvMs2_NtCsj01YzKchgFg_8mdmdview17markdown_rendererNtB5_16MarkdownRenderer20resolve_table_widths
FN:4890,_RNvMs2_NtCsj01YzKchgFg_8mdmdview17markdown_rendererNtB5_16MarkdownRenderer20set_highlight_phrase
FN:1322,_RNvMs2_NtCsj01YzKchgFg_8mdmdview17markdown_rendererNtB5_16MarkdownRenderer20strip_indent_columns
FN:4484,_RNvMs2_NtCsj01YzKchgFg_8mdmdview17markdown_rendererNtB5_16MarkdownRenderer20update_header_height
FN:2063,_RNvMs2_NtCsj01YzKchgFg_8mdmdview17markdown_rendererNtB5_16MarkdownRenderer21collect_until_tag_end
FN:1088,_RNvMs2_NtCsj01YzKchgFg_8mdmdview17markdown_rendererNtB5_16MarkdownRenderer21is_indented_code_line
FN:3348,_RNvMs2_NtCsj01YzKchgFg_8mdmdview17markdown_rendererNtB5_16MarkdownRenderer21render_list_paragraph
FN:1465,_RNvMs2_NtCsj01YzKchgFg_8mdmdview17markdown_rendererNtB5_16MarkdownRenderer21restore_pipe_sentinel
FN:4500,_RNvMs2_NtCsj01YzKchgFg_8mdmdview17markdown_rendererNtB5_16MarkdownRenderer22apply_persisted_widths
FN:3764,_RNvMs2_NtCsj01YzKchgFg_8mdmdview17markdown_rendererNtB5_16MarkdownRenderer22column_stats_for_table
FN:1658,_RNvMs2_NtCsj01YzKchgFg_8mdmdview17markdown_rendererNtB5_16MarkdownRenderer22elements_to_plain_text
FN:2994,_RNvMs2_NtCsj01YzKchgFg_8mdmdview17markdown_rendererNtB5_16MarkdownRenderer22emoji_key_for_grapheme
FN:1398,_RNvMs2_NtCsj01YzKchgFg_8mdmdview17markdown_rendererNtB5_16MarkdownRenderer22is_table_row_candidate
FN:4537,_RNvMs2_NtCsj01YzKchgFg_8mdmdview17markdown_rendererNtB5_16MarkdownRenderer22record_resolved_widths
FN:4621,_RNvMs2_NtCsj01YzKchgFg_8mdmdview17markdown_rendererNtB5_16MarkdownRenderer22render_overhauled_cell
FN:4269,_RNvMs2_NtCsj01YzKchgFg_8mdmdview17markdown_rendererNtB5_16MarkdownRenderer22table_min_column_width
FN:1409,_RNvMs2_NtCsj01YzKchgFg_8mdmdview17markdown_rendererNtB5_16MarkdownRenderer23is_table_delimiter_line
FN:2595,_RNvMs2_NtCsj01YzKchgFg_8mdmdview17markdown_rendererNtB5_16MarkdownRenderer23normalize_text_for_test
FN:2799,_RNvMs2_NtCsj01YzKchgFg_8mdmdview17markdown_rendererNtB5_16MarkdownRenderer23render_text_with_emojis
FN:1145,_RNvMs2_NtCsj01YzKchgFg_8mdmdview17markdown_rendererNtB5_16MarkdownRenderer23table_line_info_in_list
FN:4904,_RNvMs2_NtCsj01YzKchgFg_8mdmdview17markdown_rendererNtB5_16MarkdownRenderer24clear_table_layout_cache
FN:5167,_RNvMs2_NtCsj01YzKchgFg_8mdmdview17markdown_rendererNtB5_16MarkdownRenderer24find_syntax_for_language
FN:4513,_RNvMs2_NtCsj01YzKchgFg_8mdmdview17markdown_rendererNtB5_16MarkdownRenderer24persist_resizable_widths
FN:2982,_RNvMs2_NtCsj01YzKchgFg_8mdmdview17markdown_rendererNtB5_16MarkdownRenderer24render_cell_context_menu
FN:2968,_RNvMs2_NtCsj01YzKchgFg_8mdmdview17markdown_rendererNtB5_16MarkdownRenderer24render_link_context_menu
FN:2936,_RNvMs2_NtCsj01YzKchgFg_8mdmdview17markdown_rendererNtB5_16MarkdownRenderer24render_text_context_menu
FN:4910,_RNvMs2_NtCsj01YzKchgFg_8mdmdview17markdown_rendererNtB5_16MarkdownRenderer24table_layout_cache_stats
FN:4362,_RNvMs2_NtCsj01YzKchgFg_8mdmdview17markdown_rendererNtB5_16MarkdownRenderer25estimate_table_row_height
FN:5052,_RNvMs2_NtCsj01YzKchgFg_8mdmdview17markdown_rendererNtB5_16MarkdownRenderer25get_or_load_image_texture
FN:3011,_RNvMs2_NtCsj01YzKchgFg_8mdmdview17markdown_rendererNtB5_16MarkdownRenderer25get_or_make_emoji_texture
FN:3824,_RNvMs2_NtCsj01YzKchgFg_8mdmdview17markdown_rendererNtB5_16MarkdownRenderer25render_table_tablebuilder
FN:4255,_RNvMs2_NtCsj01YzKchgFg_8mdmdview17markdown_rendererNtB5_16MarkdownRenderer25row_needs_height_estimate
FN:1131,_RNvMs2_NtCsj01YzKchgFg_8mdmdview17markdown_rendererNtB5_16MarkdownRenderer25table_line_info_with_list
FN:3736,_RNvMs2_NtCsj01YzKchgFg_8mdmdview17markdown_rendererNtB5_16MarkdownRenderer26compute_table_content_hash
FN:4390,_RNvMs2_NtCsj01YzKchgFg_8mdmdview17markdown_rendererNtB5_16MarkdownRenderer26estimate_table_cell_height
FN:4347,_RNvMs2_NtCsj01YzKchgFg_8mdmdview17markdown_rendererNtB5_16MarkdownRenderer26estimate_table_total_width
FN:2894,_RNvMs2_NtCsj01YzKchgFg_8mdmdview17markdown_rendererNtB5_16MarkdownRenderer26render_highlighted_segment
FN:4425,_RNvMs2_NtCsj01YzKchgFg_8mdmdview17markdown_rendererNtB5_16MarkdownRenderer27estimate_table_image_height
FN:1218,_RNvMs2_NtCsj01YzKchgFg_8mdmdview17markdown_rendererNtB5_16MarkdownRenderer27list_marker_info_any_indent
FN:1285,_RNvMs2_NtCsj01YzKchgFg_8mdmdview17markdown_rendererNtB5_16MarkdownRenderer27parent_list_indent_for_line
FN:4273,_RNvMs2_NtCsj01YzKchgFg_8mdmdview17markdown_rendererNtB5_16MarkdownRenderer27resolve_table_column_widths
FN:4312,_RNvMs2_NtCsj01YzKchgFg_8mdmdview17markdown_rendererNtB5_16MarkdownRenderer28estimate_table_column_widths
FN:1351,_RNvMs2_NtCsj01YzKchgFg_8mdmdview17markdown_rendererNtB5_16MarkdownRenderer28has_pipe_outside_inline_code
FN:1907,_RNvMs2_NtCsj01YzKchgFg_8mdmdview17markdown_rendererNtB5_16MarkdownRenderer30parse_inline_spans_with_breaks
FN:2949,_RNvMs2_NtCsj01YzKchgFg_8mdmdview17markdown_rendererNtB5_16MarkdownRenderer30render_code_block_context_menu
FN:2943,_RNvMs2_NtCsj01YzKchgFg_8mdmdview17markdown_rendererNtB5_16MarkdownRenderer31render_inline_code_context_menu
FN:997,_RNvMs2_NtCsj01YzKchgFg_8mdmdview17markdown_rendererNtB5_16MarkdownRenderer32escape_pipes_in_inline_code_line
FN:851,_RNvMs2_NtCsj01YzKchgFg_8mdmdview17markdown_rendererNtB5_16MarkdownRenderer33escape_table_pipes_in_inline_code
FN:835,_RNvMs2_NtCsj01YzKchgFg_8mdmdview17markdown_rendererNtB5_16MarkdownRenderer33force_thread_spawn_error_for_test
FN:5114,_RNvMs2_NtCsj01YzKchgFg_8mdmdview17markdown_rendererNtB5_16MarkdownRenderer33image_source_stale_with_timestamp
FN:746,_RNvMs2_NtCsj01YzKchgFg_8mdmdview17markdown_rendererNtB5_16MarkdownRenderer3new
FN:2826,_RNvMs2_NtCsj01YzKchgFg_8mdmdview17markdown_rendererNtB5_16MarkdownRenderer43render_text_segment_with_optional_highlight
FN:1476,_RNvMs2_NtCsj01YzKchgFg_8mdmdview17markdown_rendererNtB5_16MarkdownRenderer5parse
FN:1605,_RNvMs2_NtCsj01YzKchgFg_8mdmdview17markdown_rendererNtB5_16MarkdownRenderer7slugify
FN:5213,_RNvMs2_NtCsj01YzKchgFg_8mdmdview17markdown_rendererNtB5_16MarkdownRenderer7zoom_in
FN:3632,_RNvMs2_NtCsj01YzKchgFg_8mdmdview17markdown_rendererNtB5_16MarkdownRenderer8hash_str
FN:4840,_RNvMs2_NtCsj01YzKchgFg_8mdmdview17markdown_rendererNtB5_16MarkdownRenderer8open_url
FN:841,_RNvMs2_NtCsj01YzKchgFg_8mdmdview17markdown_rendererNtB5_16MarkdownRenderer8ui_scale
FN:5226,_RNvMs2_NtCsj01YzKchgFg_8mdmdview17markdown_rendererNtB5_16MarkdownRenderer8zoom_out
FN:200,_RNvMs_NtCsj01YzKchgFg_8mdmdview17markdown_rendererNtB4_15CellLayoutCache3get
FN:190,_RNvMs_NtCsj01YzKchgFg_8mdmdview17markdown_rendererNtB4_15CellLayoutCache3new
FN:225,_RNvMs_NtCsj01YzKchgFg_8mdmdview17markdown_rendererNtB4_15CellLayoutCache5clear
FN:232,_RNvMs_NtCsj01YzKchgFg_8mdmdview17markdown_rendererNtB4_15CellLayoutCache5stats
FN:210,_RNvMs_NtCsj01YzKchgFg_8mdmdview17markdown_rendererNtB4_15CellLayoutCache6insert
FN:70,_RNvNtCsj01YzKchgFg_8mdmdview17markdown_renderer22force_parse_error_once
FN:55,_RNvNtCsj01YzKchgFg_8mdmdview17markdown_renderer23render_action_triggered
FN:80,_RNvNtCsj01YzKchgFg_8mdmdview17markdown_renderer23take_forced_parse_error
FN:65,_RNvNtCsj01YzKchgFg_8mdmdview17markdown_renderer26take_forced_table_policies
FN:75,_RNvNtCsj01YzKchgFg_8mdmdview17markdown_renderer29force_emoji_decode_error_once
FN:98,_RNvXNtCsj01YzKchgFg_8mdmdview17markdown_rendererNtB2_9FontSizesNtNtCs3mF4h8B4xym_4core7default7Default7default
FN:399,_RNvXs1_NtCsj01YzKchgFg_8mdmdview17markdown_rendererNtB5_16MarkdownRendererNtNtCs3mF4h8B4xym_4core7default7Default7default
FNDA:378,_RINvMs2_NtCsj01YzKchgFg_8mdmdview17markdown_rendererNtB6_16MarkdownRenderer18spawn_named_threadNCNvB2_18spawn_image_loader0EB8_
FNDA:74,_RNCNCNCNCNCNCNCNvMs2_NtCsj01YzKchgFg_8mdmdview17markdown_rendererNtBj_16MarkdownRenderer25render_table_tablebuilders4_000s3_0000Bl_
FNDA:74,_RNCNCNCNCNCNCNCNvMs2_NtCsj01YzKchgFg_8mdmdview17markdown_rendererNtBj_16MarkdownRenderer25render_table_tablebuilders4_000s3_000s_0Bl_
FNDA:47,_RNCNCNCNCNCNCNvMs2_NtCsj01YzKchgFg_8mdmdview17markdown_rendererNtBh_16MarkdownRenderer25render_table_tablebuilders4_000s0_000Bj_
FNDA:52,_RNCNCNCNCNCNCNvMs2_NtCsj01YzKchgFg_8mdmdview17markdown_rendererNtBh_16MarkdownRenderer25render_table_tablebuilders4_000s2_000Bj_
FNDA:74,_RNCNCNCNCNCNCNvMs2_NtCsj01YzKchgFg_8mdmdview17markdown_rendererNtBh_16MarkdownRenderer25render_table_tablebuilders4_000s3_000Bj_
FNDA:47,_RNCNCNCNCNCNvMs2_NtCsj01YzKchgFg_8mdmdview17markdown_rendererNtBf_16MarkdownRenderer25render_table_tablebuilders4_000s0_00Bh_
FNDA:47,_RNCNCNCNCNCNvMs2_NtCsj01YzKchgFg_8mdmdview17markdown_rendererNtBf_16MarkdownRenderer25render_table_tablebuilders4_000s0_0s_0Bh_
FNDA:55,_RNCNCNCNCNCNvMs2_NtCsj01YzKchgFg_8mdmdview17markdown_rendererNtBf_16MarkdownRenderer25render_table_tablebuilders4_000s2_00Bh_
FNDA:27,_RNCNCNCNCNCNvMs2_NtCsj01YzKchgFg_8mdmdview17markdown_rendererNtBf_16MarkdownRenderer25render_table_tablebuilders4_000s3_00Bh_
FNDA:70,_RNCNCNCNCNvMs2_NtCsj01YzKchgFg_8mdmdview17markdown_rendererNtBd_16MarkdownRenderer17render_code_block00s_00Bf_
FNDA:19,_RNCNCNCNCNvMs2_NtCsj01YzKchgFg_8mdmdview17markdown_rendererNtBd_16MarkdownRenderer25render_table_tablebuilders4_0000Bf_
FNDA:18,_RNCNCNCNCNvMs2_NtCsj01YzKchgFg_8mdmdview17markdown_rendererNtBd_16MarkdownRenderer25render_table_tablebuilders4_000s0_0Bf_
FNDA:27,_RNCNCNCNCNvMs2_NtCsj01YzKchgFg_8mdmdview17markdown_rendererNtBd_16MarkdownRenderer25render_table_tablebuilders4_000s1_0Bf_
FNDA:19,_RNCNCNCNCNvMs2_NtCsj01YzKchgFg_8mdmdview17markdown_rendererNtBd_16MarkdownRenderer25render_table_tablebuilders4_000s2_0Bf_
FNDA:19,_RNCNCNCNCNvMs2_NtCsj01YzKchgFg_8mdmdview17markdown_rendererNtBd_16MarkdownRenderer25render_table_tablebuilders4_000s3_0Bf_
FNDA:19,_RNCNCNCNCNvMs2_NtCsj01YzKchgFg_8mdmdview17markdown_rendererNtBd_16MarkdownRenderer25render_table_tablebuilders4_000s_0Bf_
FNDA:1,_RNCNCNCNvMs2_NtCsj01YzKchgFg_8mdmdview17markdown_rendererNtBb_16MarkdownRenderer17render_code_block000Bd_
FNDA:10,_RNCNCNCNvMs2_NtCsj01YzKchgFg_8mdmdview17markdown_rendererNtBb_16MarkdownRenderer17render_code_block00s_0Bd_
FNDA:19,_RNCNCNCNvMs2_NtCsj01YzKchgFg_8mdmdview17markdown_rendererNtBb_16MarkdownRenderer25render_table_tablebuilders4_000Bd_
FNDA:10,_RNCNCNvMs2_NtCsj01YzKchgFg_8mdmdview17markdown_rendererNtB9_16MarkdownRenderer17render_code_block00Bb_
FNDA:5,_RNCNCNvMs2_NtCsj01YzKchgFg_8mdmdview17markdown_rendererNtB9_16MarkdownRenderer17render_list_block00Bb_
FNDA:1,_RNCNCNvMs2_NtCsj01YzKchgFg_8mdmdview17markdown_rendererNtB9_16MarkdownRenderer19resolve_table_rectss0_00Bb_
FNDA:1,_RNCNCNvMs2_NtCsj01YzKchgFg_8mdmdview17markdown_rendererNtB9_16MarkdownRenderer19resolve_table_rectss3_00Bb_
FNDA:1,_RNCNCNvMs2_NtCsj01YzKchgFg_8mdmdview17markdown_rendererNtB9_16MarkdownRenderer19resolve_table_rectss4_00Bb_
FNDA:2,_RNCNCNvMs2_NtCsj01YzKchgFg_8mdmdview17markdown_rendererNtB9_16MarkdownRenderer19resolve_table_rectss6_00Bb_
FNDA:1,_RNCNCNvMs2_NtCsj01YzKchgFg_8mdmdview17markdown_rendererNtB9_16MarkdownRenderer19resolve_table_rectss7_00Bb_
FNDA:2,_RNCNCNvMs2_NtCsj01YzKchgFg_8mdmdview17markdown_rendererNtB9_16MarkdownRenderer19resolve_table_rectss8_00Bb_
FNDA:1,_RNCNCNvMs2_NtCsj01YzKchgFg_8mdmdview17markdown_rendererNtB9_16MarkdownRenderer19resolve_table_rectss_00Bb_
FNDA:102,_RNCNCNvMs2_NtCsj01YzKchgFg_8mdmdview17markdown_rendererNtB9_16MarkdownRenderer20measure_inline_spans00Bb_
FNDA:1,_RNCNCNvMs2_NtCsj01YzKchgFg_8mdmdview17markdown_rendererNtB9_16MarkdownRenderer20measure_inline_spans0s_0Bb_
FNDA:7,_RNCNCNvMs2_NtCsj01YzKchgFg_8mdmdview17markdown_rendererNtB9_16MarkdownRenderer21render_list_paragraph00Bb_
FNDA:19,_RNCNCNvMs2_NtCsj01YzKchgFg_8mdmdview17markdown_rendererNtB9_16MarkdownRenderer25render_table_tablebuilders4_00Bb_
FNDA:80,_RNCNCNvMs2_NtCsj01YzKchgFg_8mdmdview17markdown_rendererNtB9_16MarkdownRenderer25row_needs_height_estimate00Bb_
FNDA:7,_RNCNCNvMs2_NtCsj01YzKchgFg_8mdmdview17markdown_rendererNtB9_16MarkdownRenderer27resolve_table_column_widthss_00Bb_
FNDA:19,_RNCNvMs0_NtCsj01YzKchgFg_8mdmdview17markdown_rendererNtB7_10ImageCache5touch0B9_
FNDA:1,_RNCNvMs0_NtCsj01YzKchgFg_8mdmdview17markdown_rendererNtB7_10ImageCache6remove0B9_
FNDA:2086,_RNCNvMs2_NtCsj01YzKchgFg_8mdmdview17markdown_rendererNtB7_16MarkdownRenderer10parse_list0B9_
FNDA:2,_RNCNvMs2_NtCsj01YzKchgFg_8mdmdview17markdown_rendererNtB7_16MarkdownRenderer11render_list0B9_
FNDA:2,_RNCNvMs2_NtCsj01YzKchgFg_8mdmdview17markdown_rendererNtB7_16MarkdownRenderer11render_lists_0B9_
FNDA:79,_RNCNvMs2_NtCsj01YzKchgFg_8mdmdview17markdown_rendererNtB7_16MarkdownRenderer12render_to_ui0B9_
FNDA:7,_RNCNvMs2_NtCsj01YzKchgFg_8mdmdview17markdown_rendererNtB7_16MarkdownRenderer14cell_fragments0B9_
FNDA:81,_RNCNvMs2_NtCsj01YzKchgFg_8mdmdview17markdown_rendererNtB7_16MarkdownRenderer14to_superscript0B9_
FNDA:4,_RNCNvMs2_NtCsj01YzKchgFg_8mdmdview17markdown_rendererNtB7_16MarkdownRenderer15link_at_pointer0B9_
FNDA:28,_RNCNvMs2_NtCsj01YzKchgFg_8mdmdview17markdown_rendererNtB7_16MarkdownRenderer15row_height_hint0B9_
FNDA:2,_RNCNvMs2_NtCsj01YzKchgFg_8mdmdview17markdown_rendererNtB7_16MarkdownRenderer15row_height_hints_0B9_
FNDA:10,_RNCNvMs2_NtCsj01YzKchgFg_8mdmdview17markdown_rendererNtB7_16MarkdownRenderer16build_layout_job0B9_
FNDA:8,_RNCNvMs2_NtCsj01YzKchgFg_8mdmdview17markdown_rendererNtB7_16MarkdownRenderer17cached_layout_job0B9_
FNDA:305,_RNCNvMs2_NtCsj01YzKchgFg_8mdmdview17markdown_rendererNtB7_16MarkdownRenderer17expand_shortcodes0B9_
FNDA:5739,_RNCNvMs2_NtCsj01YzKchgFg_8mdmdview17markdown_rendererNtB7_16MarkdownRenderer17fix_unicode_chars0B9_
FNDA:10,_RNCNvMs2_NtCsj01YzKchgFg_8mdmdview17markdown_rendererNtB7_16MarkdownRenderer17render_code_block0B9_
FNDA:5,_RNCNvMs2_NtCsj01YzKchgFg_8mdmdview17markdown_rendererNtB7_16MarkdownRenderer17render_list_block0B9_
FNDA:40,_RNCNvMs2_NtCsj01YzKchgFg_8mdmdview17markdown_rendererNtB7_16MarkdownRenderer18highlight_segments0B9_
FNDA:6,_RNCNvMs2_NtCsj01YzKchgFg_8mdmdview17markdown_rendererNtB7_16MarkdownRenderer18render_inline_span0B9_
FNDA:11,_RNCNvMs2_NtCsj01YzKchgFg_8mdmdview17markdown_rendererNtB7_16MarkdownRenderer18render_inline_spans0_0B9_
FNDA:3,_RNCNvMs2_NtCsj01YzKchgFg_8mdmdview17markdown_rendererNtB7_16MarkdownRenderer18render_inline_spans_0B9_
FNDA:377,_RNCNvMs2_NtCsj01YzKchgFg_8mdmdview17markdown_rendererNtB7_16MarkdownRenderer18spawn_image_loader0B9_
FNDA:73,_RNCNvMs2_NtCsj01YzKchgFg_8mdmdview17markdown_rendererNtB7_16MarkdownRenderer19collect_blockquotes0B9_
FNDA:1,_RNCNvMs2_NtCsj01YzKchgFg_8mdmdview17markdown_rendererNtB7_16MarkdownRenderer19render_element_body0B9_
FNDA:32,_RNCNvMs2_NtCsj01YzKchgFg_8mdmdview17markdown_rendererNtB7_16MarkdownRenderer19render_element_bodys_0B9_
FNDA:29,_RNCNvMs2_NtCsj01YzKchgFg_8mdmdview17markdown_rendererNtB7_16MarkdownRenderer19render_inline_spans0B9_
FNDA:21,_RNCNvMs2_NtCsj01YzKchgFg_8mdmdview17markdown_rendererNtB7_16MarkdownRenderer19resolve_table_rects0B9_
FNDA:3,_RNCNvMs2_NtCsj01YzKchgFg_8mdmdview17markdown_rendererNtB7_16MarkdownRenderer19resolve_table_rectss0_0B9_
FNDA:23,_RNCNvMs2_NtCsj01YzKchgFg_8mdmdview17markdown_rendererNtB7_16MarkdownRenderer19resolve_table_rectss1_0B9_
FNDA:21,_RNCNvMs2_NtCsj01YzKchgFg_8mdmdview17markdown_rendererNtB7_16MarkdownRenderer19resolve_table_rectss2_0B9_
FNDA:4,_RNCNvMs2_NtCsj01YzKchgFg_8mdmdview17markdown_rendererNtB7_16MarkdownRenderer19resolve_table_rectss3_0B9_
FNDA:3,_RNCNvMs2_NtCsj01YzKchgFg_8mdmdview17markdown_rendererNtB7_16MarkdownRenderer19resolve_table_rectss4_0B9_
FNDA:20,_RNCNvMs2_NtCsj01YzKchgFg_8mdmdview17markdown_rendererNtB7_16MarkdownRenderer19resolve_table_rectss5_0B9_
FNDA:5,_RNCNvMs2_NtCsj01YzKchgFg_8mdmdview17markdown_rendererNtB7_16MarkdownRenderer19resolve_table_rectss6_0B9_
FNDA:3,_RNCNvMs2_NtCsj01YzKchgFg_8mdmdview17markdown_rendererNtB7_16MarkdownRenderer19resolve_table_rectss7_0B9_
FNDA:2,_RNCNvMs2_NtCsj01YzKchgFg_8mdmdview17markdown_rendererNtB7_16MarkdownRenderer19resolve_table_rectss8_0B9_
FNDA:4,_RNCNvMs2_NtCsj01YzKchgFg_8mdmdview17markdown_rendererNtB7_16MarkdownRenderer19resolve_table_rectss_0B9_
FNDA:8,_RNCNvMs2_NtCsj01YzKchgFg_8mdmdview17markdown_rendererNtB7_16MarkdownRenderer20measure_inline_spans0B9_
FNDA:133,_RNCNvMs2_NtCsj01YzKchgFg_8mdmdview17markdown_rendererNtB7_16MarkdownRenderer20paint_table_text_job0B9_
FNDA:3,_RNCNvMs2_NtCsj01YzKchgFg_8mdmdview17markdown_rendererNtB7_16MarkdownRenderer20paint_table_text_jobs_0B9_
FNDA:6,_RNCNvMs2_NtCsj01YzKchgFg_8mdmdview17markdown_rendererNtB7_16MarkdownRenderer20resolve_table_widths0B9_
FNDA:6,_RNCNvMs2_NtCsj01YzKchgFg_8mdmdview17markdown_rendererNtB7_16MarkdownRenderer20resolve_table_widthss0_0B9_
FNDA:4,_RNCNvMs2_NtCsj01YzKchgFg_8mdmdview17markdown_rendererNtB7_16MarkdownRenderer20resolve_table_widthss_0B9_
FNDA:9,_RNCNvMs2_NtCsj01YzKchgFg_8mdmdview17markdown_rendererNtB7_16MarkdownRenderer20set_highlight_phrase0B9_
FNDA:9,_RNCNvMs2_NtCsj01YzKchgFg_8mdmdview17markdown_rendererNtB7_16MarkdownRenderer20set_highlight_phrases_0B9_
FNDA:61,_RNCNvMs2_NtCsj01YzKchgFg_8mdmdview17markdown_rendererNtB7_16MarkdownRenderer21render_list_paragraph0B9_
FNDA:8,_RNCNvMs2_NtCsj01YzKchgFg_8mdmdview17markdown_rendererNtB7_16MarkdownRenderer21restore_pipe_sentinel0B9_
FNDA:2,_RNCNvMs2_NtCsj01YzKchgFg_8mdmdview17markdown_rendererNtB7_16MarkdownRenderer22column_stats_for_table0B9_
FNDA:4316,_RNCNvMs2_NtCsj01YzKchgFg_8mdmdview17markdown_rendererNtB7_16MarkdownRenderer22emoji_key_for_grapheme0B9_
FNDA:4314,_RNCNvMs2_NtCsj01YzKchgFg_8mdmdview17markdown_rendererNtB7_16MarkdownRenderer22emoji_key_for_graphemes_0B9_
FNDA:132,_RNCNvMs2_NtCsj01YzKchgFg_8mdmdview17markdown_rendererNtB7_16MarkdownRenderer22render_overhauled_cell0B9_
FNDA:31,_RNCNvMs2_NtCsj01YzKchgFg_8mdmdview17markdown_rendererNtB7_16MarkdownRenderer24find_syntax_for_language0B9_
FNDA:22,_RNCNvMs2_NtCsj01YzKchgFg_8mdmdview17markdown_rendererNtB7_16MarkdownRenderer25estimate_table_row_height0B9_
FNDA:1,_RNCNvMs2_NtCsj01YzKchgFg_8mdmdview17markdown_rendererNtB7_16MarkdownRenderer25estimate_table_row_heights_0B9_
FNDA:55,_RNCNvMs2_NtCsj01YzKchgFg_8mdmdview17markdown_rendererNtB7_16MarkdownRenderer25render_table_tablebuilder0B9_
FNDA:39,_RNCNvMs2_NtCsj01YzKchgFg_8mdmdview17markdown_rendererNtB7_16MarkdownRenderer25render_table_tablebuilders0_0B9_
FNDA:25,_RNCNvMs2_NtCsj01YzKchgFg_8mdmdview17markdown_rendererNtB7_16MarkdownRenderer25render_table_tablebuilders1_0B9_
FNDA:18,_RNCNvMs2_NtCsj01YzKchgFg_8mdmdview17markdown_rendererNtB7_16MarkdownRenderer25render_table_tablebuilders2_0B9_
FNDA:37,_RNCNvMs2_NtCsj01YzKchgFg_8mdmdview17markdown_rendererNtB7_16MarkdownRenderer25render_table_tablebuilders3_0B9_
FNDA:19,_RNCNvMs2_NtCsj01YzKchgFg_8mdmdview17markdown_rendererNtB7_16MarkdownRenderer25render_table_tablebuilders4_0B9_
FNDA:5,_RNCNvMs2_NtCsj01YzKchgFg_8mdmdview17markdown_rendererNtB7_16MarkdownRenderer25render_table_tablebuilders5_0B9_
FNDA:55,_RNCNvMs2_NtCsj01YzKchgFg_8mdmdview17markdown_rendererNtB7_16MarkdownRenderer25render_table_tablebuilders_0B9_
FNDA:72,_RNCNvMs2_NtCsj01YzKchgFg_8mdmdview17markdown_rendererNtB7_16MarkdownRenderer25row_needs_height_estimate0B9_
FNDA:21,_RNCNvMs2_NtCsj01YzKchgFg_8mdmdview17markdown_rendererNtB7_16MarkdownRenderer26estimate_table_cell_height0B9_
FNDA:1,_RNCNvMs2_NtCsj01YzKchgFg_8mdmdview17markdown_rendererNtB7_16MarkdownRenderer27estimate_table_image_height0B9_
FNDA:20,_RNCNvMs2_NtCsj01YzKchgFg_8mdmdview17markdown_rendererNtB7_16MarkdownRenderer27resolve_table_column_widths0B9_
FNDA:60,_RNCNvMs2_NtCsj01YzKchgFg_8mdmdview17markdown_rendererNtB7_16MarkdownRenderer27resolve_table_column_widthss_0B9_
FNDA:56,_RNCNvMs2_NtCsj01YzKchgFg_8mdmdview17markdown_rendererNtB7_16MarkdownRenderer28estimate_table_column_widths0B9_
FNDA:56,_RNCNvMs2_NtCsj01YzKchgFg_8mdmdview17markdown_rendererNtB7_16MarkdownRenderer28estimate_table_column_widthss_0B9_
FNDA:22,_RNCNvMs2_NtCsj01YzKchgFg_8mdmdview17markdown_rendererNtB7_16MarkdownRenderer43render_text_segment_with_optional_highlight0B9_
FNDA:977,_RNCNvMs_NtCsj01YzKchgFg_8mdmdview17markdown_rendererNtB6_15CellLayoutCache6insert0B8_
FNDA:4,_RNCNvNtCsj01YzKchgFg_8mdmdview17markdown_renderer22force_parse_error_once0B5_
FNDA:449,_RNCNvNtCsj01YzKchgFg_8mdmdview17markdown_renderer23render_action_triggered0B5_
FNDA:272,_RNCNvNtCsj01YzKchgFg_8mdmdview17markdown_renderer23take_forced_parse_error0B5_
FNDA:19,_RNCNvNtCsj01YzKchgFg_8mdmdview17markdown_renderer26take_forced_table_policies0B5_
FNDA:5,_RNvMs0_NtCsj01YzKchgFg_8mdmdview17markdown_rendererNtB5_10ImageCache12contains_key
FNDA:49,_RNvMs0_NtCsj01YzKchgFg_8mdmdview17markdown_rendererNtB5_10ImageCache3get
FNDA:376,_RNvMs0_NtCsj01YzKchgFg_8mdmdview17markdown_rendererNtB5_10ImageCache3new
FNDA:19,_RNvMs0_NtCsj01YzKchgFg_8mdmdview17markdown_rendererNtB5_10ImageCache5touch
FNDA:17,_RNvMs0_NtCsj01YzKchgFg_8mdmdview17markdown_rendererNtB5_10ImageCache6insert
FNDA:1,_RNvMs0_NtCsj01YzKchgFg_8mdmdview17markdown_rendererNtB5_10ImageCache6remove
FNDA:2,_RNvMs2_NtCsj01YzKchgFg_8mdmdview17markdown_rendererNtB5_16MarkdownRenderer10font_sizes
FNDA:564,_RNvMs2_NtCsj01YzKchgFg_8mdmdview17markdown_rendererNtB5_16MarkdownRenderer10parse_list
FNDA:5,_RNvMs2_NtCsj01YzKchgFg_8mdmdview17markdown_rendererNtB5_16MarkdownRenderer10reset_zoom
FNDA:176,_RNvMs2_NtCsj01YzKchgFg_8mdmdview17markdown_rendererNtB5_16MarkdownRenderer11align_to_u8
FNDA:6226,_RNvMs2_NtCsj01YzKchgFg_8mdmdview17markdown_rendererNtB5_16MarkdownRenderer11fence_start
FNDA:44,_RNvMs2_NtCsj01YzKchgFg_8mdmdview17markdown_rendererNtB5_16MarkdownRenderer11parse_table
FNDA:18,_RNvMs2_NtCsj01YzKchgFg_8mdmdview17markdown_rendererNtB5_16MarkdownRenderer11render_list
FNDA:35,_RNvMs2_NtCsj01YzKchgFg_8mdmdview17markdown_rendererNtB5_16MarkdownRenderer11tab_advance
FNDA:122,_RNvMs2_NtCsj01YzKchgFg_8mdmdview17markdown_rendererNtB5_16MarkdownRenderer12is_fence_end
FNDA:5,_RNvMs2_NtCsj01YzKchgFg_8mdmdview17markdown_rendererNtB5_16MarkdownRenderer12render_table
FNDA:23,_RNvMs2_NtCsj01YzKchgFg_8mdmdview17markdown_rendererNtB5_16MarkdownRenderer12render_to_ui
FNDA:74,_RNvMs2_NtCsj01YzKchgFg_8mdmdview17markdown_rendererNtB5_16MarkdownRenderer12set_base_dir
FNDA:12,_RNvMs2_NtCsj01YzKchgFg_8mdmdview17markdown_rendererNtB5_16MarkdownRenderer12trigger_link
FNDA:2391,_RNvMs2_NtCsj01YzKchgFg_8mdmdview17markdown_rendererNtB5_16MarkdownRenderer13parse_element
FNDA:23,_RNvMs2_NtCsj01YzKchgFg_8mdmdview17markdown_rendererNtB5_16MarkdownRenderer14alignment_hash
FNDA:160,_RNvMs2_NtCsj01YzKchgFg_8mdmdview17markdown_rendererNtB5_16MarkdownRenderer14cell_fragments
FNDA:102,_RNvMs2_NtCsj01YzKchgFg_8mdmdview17markdown_rendererNtB5_16MarkdownRenderer14is_known_emoji
FNDA:4,_RNvMs2_NtCsj01YzKchgFg_8mdmdview17markdown_rendererNtB5_16MarkdownRenderer14set_zoom_scale
FNDA:6,_RNvMs2_NtCsj01YzKchgFg_8mdmdview17markdown_rendererNtB5_16MarkdownRenderer14to_superscript
FNDA:14,_RNvMs2_NtCsj01YzKchgFg_8mdmdview17markdown_rendererNtB5_16MarkdownRenderer15element_rect_at
FNDA:3,_RNvMs2_NtCsj01YzKchgFg_8mdmdview17markdown_rendererNtB5_16MarkdownRenderer15header_rect_for
FNDA:29,_RNvMs2_NtCsj01YzKchgFg_8mdmdview17markdown_rendererNtB5_16MarkdownRenderer15is_external_url
FNDA:136,_RNvMs2_NtCsj01YzKchgFg_8mdmdview17markdown_rendererNtB5_16MarkdownRenderer15link_at_pointer
FNDA:28,_RNvMs2_NtCsj01YzKchgFg_8mdmdview17markdown_rendererNtB5_16MarkdownRenderer15row_height_hint
FNDA:37411,_RNvMs2_NtCsj01YzKchgFg_8mdmdview17markdown_rendererNtB5_16MarkdownRenderer15table_line_info
FNDA:3,_RNvMs2_NtCsj01YzKchgFg_8mdmdview17markdown_rendererNtB5_16MarkdownRenderer16append_code_span
FNDA:19,_RNvMs2_NtCsj01YzKchgFg_8mdmdview17markdown_rendererNtB5_16MarkdownRenderer16begin_table_pass
FNDA:207,_RNvMs2_NtCsj01YzKchgFg_8mdmdview17markdown_rendererNtB5_16MarkdownRenderer16build_layout_job
FNDA:23,_RNvMs2_NtCsj01YzKchgFg_8mdmdview17markdown_rendererNtB5_16MarkdownRenderer16compute_table_id
FNDA:12,_RNvMs2_NtCsj01YzKchgFg_8mdmdview17markdown_rendererNtB5_16MarkdownRenderer16extract_fragment
FNDA:19,_RNvMs2_NtCsj01YzKchgFg_8mdmdview17markdown_rendererNtB5_16MarkdownRenderer16layout_signature
FNDA:14705,_RNvMs2_NtCsj01YzKchgFg_8mdmdview17markdown_rendererNtB5_16MarkdownRenderer16list_marker_info
FNDA:4,_RNvMs2_NtCsj01YzKchgFg_8mdmdview17markdown_rendererNtB5_16MarkdownRenderer16next_table_index
FNDA:18,_RNvMs2_NtCsj01YzKchgFg_8mdmdview17markdown_rendererNtB5_16MarkdownRenderer16parse_code_block
FNDA:972,_RNvMs2_NtCsj01YzKchgFg_8mdmdview17markdown_rendererNtB5_16MarkdownRenderer16spans_plain_text
FNDA:8,_RNvMs2_NtCsj01YzKchgFg_8mdmdview17markdown_rendererNtB5_16MarkdownRenderer17alignment_to_egui
FNDA:224,_RNvMs2_NtCsj01YzKchgFg_8mdmdview17markdown_rendererNtB5_16MarkdownRenderer17append_plain_span
FNDA:176,_RNvMs2_NtCsj01YzKchgFg_8mdmdview17markdown_rendererNtB5_16MarkdownRenderer17cached_layout_job
FNDA:166,_RNvMs2_NtCsj01YzKchgFg_8mdmdview17markdown_rendererNtB5_16MarkdownRenderer17cell_single_emoji
FNDA:14,_RNvMs2_NtCsj01YzKchgFg_8mdmdview17markdown_rendererNtB5_16MarkdownRenderer17enqueue_image_job
FNDA:471,_RNvMs2_NtCsj01YzKchgFg_8mdmdview17markdown_rendererNtB5_16MarkdownRenderer17expand_shortcodes
FNDA:136,_RNvMs2_NtCsj01YzKchgFg_8mdmdview17markdown_rendererNtB5_16MarkdownRenderer17extend_table_rect
FNDA:463,_RNvMs2_NtCsj01YzKchgFg_8mdmdview17markdown_rendererNtB5_16MarkdownRenderer17fix_unicode_chars
FNDA:577,_RNvMs2_NtCsj01YzKchgFg_8mdmdview17markdown_rendererNtB5_16MarkdownRenderer17hash_inline_spans
FNDA:10,_RNvMs2_NtCsj01YzKchgFg_8mdmdview17markdown_rendererNtB5_16MarkdownRenderer17is_allowed_scheme
FNDA:27,_RNvMs2_NtCsj01YzKchgFg_8mdmdview17markdown_rendererNtB5_16MarkdownRenderer17note_row_rendered
FNDA:11,_RNvMs2_NtCsj01YzKchgFg_8mdmdview17markdown_rendererNtB5_16MarkdownRenderer17render_code_block
FNDA:7,_RNvMs2_NtCsj01YzKchgFg_8mdmdview17markdown_rendererNtB5_16MarkdownRenderer17render_list_block
FNDA:27,_RNvMs2_NtCsj01YzKchgFg_8mdmdview17markdown_rendererNtB5_16MarkdownRenderer17update_row_height
FNDA:55,_RNvMs2_NtCsj01YzKchgFg_8mdmdview17markdown_rendererNtB5_16MarkdownRenderer18element_plain_text
FNDA:267,_RNvMs2_NtCsj01YzKchgFg_8mdmdview17markdown_rendererNtB5_16MarkdownRenderer18highlight_segments
FNDA:14,_RNvMs2_NtCsj01YzKchgFg_8mdmdview17markdown_rendererNtB5_16MarkdownRenderer18image_source_stale
FNDA:39,_RNvMs2_NtCsj01YzKchgFg_8mdmdview17markdown_rendererNtB5_16MarkdownRenderer18is_html_line_break
FNDA:8,_RNvMs2_NtCsj01YzKchgFg_8mdmdview17markdown_rendererNtB5_16MarkdownRenderer18note_image_failure
FNDA:880,_RNvMs2_NtCsj01YzKchgFg_8mdmdview17markdown_rendererNtB5_16MarkdownRenderer18parse_inline_spans
FNDA:38,_RNvMs2_NtCsj01YzKchgFg_8mdmdview17markdown_rendererNtB5_16MarkdownRenderer18poll_image_results
FNDA:248,_RNvMs2_NtCsj01YzKchgFg_8mdmdview17markdown_rendererNtB5_16MarkdownRenderer18render_inline_span
FNDA:2,_RNvMs2_NtCsj01YzKchgFg_8mdmdview17markdown_rendererNtB5_16MarkdownRenderer18render_table_emoji
FNDA:31,_RNvMs2_NtCsj01YzKchgFg_8mdmdview17markdown_rendererNtB5_16MarkdownRenderer18resolve_image_path
FNDA:22,_RNvMs2_NtCsj01YzKchgFg_8mdmdview17markdown_rendererNtB5_16MarkdownRenderer18should_retry_image
FNDA:378,_RNvMs2_NtCsj01YzKchgFg_8mdmdview17markdown_rendererNtB5_16MarkdownRenderer18spawn_image_loader
FNDA:2,_RNvMs2_NtCsj01YzKchgFg_8mdmdview17markdown_rendererNtB5_16MarkdownRenderer18table_render_stats
FNDA:142,_RNvMs2_NtCsj01YzKchgFg_8mdmdview17markdown_rendererNtB5_16MarkdownRenderer19aligned_text_origin
FNDA:26,_RNvMs2_NtCsj01YzKchgFg_8mdmdview17markdown_rendererNtB5_16MarkdownRenderer19collect_blockquotes
FNDA:9,_RNvMs2_NtCsj01YzKchgFg_8mdmdview17markdown_rendererNtB5_16MarkdownRenderer19copy_text_and_close
FNDA:475,_RNvMs2_NtCsj01YzKchgFg_8mdmdview17markdown_rendererNtB5_16MarkdownRenderer19expand_superscripts
FNDA:22,_RNvMs2_NtCsj01YzKchgFg_8mdmdview17markdown_rendererNtB5_16MarkdownRenderer19handle_width_change
FNDA:10,_RNvMs2_NtCsj01YzKchgFg_8mdmdview17markdown_rendererNtB5_16MarkdownRenderer19has_pending_renders
FNDA:90,_RNvMs2_NtCsj01YzKchgFg_8mdmdview17markdown_rendererNtB5_16MarkdownRenderer19render_element_body
FNDA:29,_RNvMs2_NtCsj01YzKchgFg_8mdmdview17markdown_rendererNtB5_16MarkdownRenderer19render_inline_spans
FNDA:25,_RNvMs2_NtCsj01YzKchgFg_8mdmdview17markdown_rendererNtB5_16MarkdownRenderer19resolve_table_rects
FNDA:243,_RNvMs2_NtCsj01YzKchgFg_8mdmdview17markdown_rendererNtB5_16MarkdownRenderer19row_height_fallback
FNDA:7,_RNvMs2_NtCsj01YzKchgFg_8mdmdview17markdown_rendererNtB5_16MarkdownRenderer19store_image_texture
FNDA:26,_RNvMs2_NtCsj01YzKchgFg_8mdmdview17markdown_rendererNtB5_16MarkdownRenderer19take_pending_anchor
FNDA:55,_RNvMs2_NtCsj01YzKchgFg_8mdmdview17markdown_rendererNtB5_16MarkdownRenderer20alignment_for_column
FNDA:243,_RNvMs2_NtCsj01YzKchgFg_8mdmdview17markdown_rendererNtB5_16MarkdownRenderer20append_text_sections
FNDA:15,_RNvMs2_NtCsj01YzKchgFg_8mdmdview17markdown_rendererNtB5_16MarkdownRenderer20disk_image_timestamp
FNDA:45,_RNvMs2_NtCsj01YzKchgFg_8mdmdview17markdown_rendererNtB5_16MarkdownRenderer20embedded_image_bytes
FNDA:23,_RNvMs2_NtCsj01YzKchgFg_8mdmdview17markdown_rendererNtB5_16MarkdownRenderer20generate_emoji_image
FNDA:8,_RNvMs2_NtCsj01YzKchgFg_8mdmdview17markdown_rendererNtB5_16MarkdownRenderer20measure_inline_spans
FNDA:23,_RNvMs2_NtCsj01YzKchgFg_8mdmdview17markdown_rendererNtB5_16MarkdownRenderer20paint_table_dividers
FNDA:133,_RNvMs2_NtCsj01YzKchgFg_8mdmdview17markdown_rendererNtB5_16MarkdownRenderer20paint_table_text_job
FNDA:1,_RNvMs2_NtCsj01YzKchgFg_8mdmdview17markdown_rendererNtB5_16MarkdownRenderer20render_mermaid_block
FNDA:213,_RNvMs2_NtCsj01YzKchgFg_8mdmdview17markdown_rendererNtB5_16MarkdownRenderer20render_plain_segment
FNDA:8,_RNvMs2_NtCsj01YzKchgFg_8mdmdview17markdown_rendererNtB5_16MarkdownRenderer20resolve_table_widths
FNDA:29,_RNvMs2_NtCsj01YzKchgFg_8mdmdview17markdown_rendererNtB5_16MarkdownRenderer20set_highlight_phrase
FNDA:8580,_RNvMs2_NtCsj01YzKchgFg_8mdmdview17markdown_rendererNtB5_16MarkdownRenderer20strip_indent_columns
FNDA:19,_RNvMs2_NtCsj01YzKchgFg_8mdmdview17markdown_rendererNtB5_16MarkdownRenderer20update_header_height
FNDA:1905,_RNvMs2_NtCsj01YzKchgFg_8mdmdview17markdown_rendererNtB5_16MarkdownRenderer21collect_until_tag_end
FNDA:3950,_RNvMs2_NtCsj01YzKchgFg_8mdmdview17markdown_rendererNtB5_16MarkdownRenderer21is_indented_code_line
FNDA:57,_RNvMs2_NtCsj01YzKchgFg_8mdmdview17markdown_rendererNtB5_16MarkdownRenderer21render_list_paragraph
FNDA:4070,_RNvMs2_NtCsj01YzKchgFg_8mdmdview17markdown_rendererNtB5_16MarkdownRenderer21restore_pipe_sentinel
FNDA:20,_RNvMs2_NtCsj01YzKchgFg_8mdmdview17markdown_rendererNtB5_16MarkdownRenderer22apply_persisted_widths
FNDA:20,_RNvMs2_NtCsj01YzKchgFg_8mdmdview17markdown_rendererNtB5_16MarkdownRenderer22column_stats_for_table
FNDA:14,_RNvMs2_NtCsj01YzKchgFg_8mdmdview17markdown_rendererNtB5_16MarkdownRenderer22elements_to_plain_text
FNDA:4316,_RNvMs2_NtCsj01YzKchgFg_8mdmdview17markdown_rendererNtB5_16MarkdownRenderer22emoji_key_for_grapheme
FNDA:3873,_RNvMs2_NtCsj01YzKchgFg_8mdmdview17markdown_rendererNtB5_16MarkdownRenderer22is_table_row_candidate
FNDA:20,_RNvMs2_NtCsj01YzKchgFg_8mdmdview17markdown_rendererNtB5_16MarkdownRenderer22record_resolved_widths
FNDA:132,_RNvMs2_NtCsj01YzKchgFg_8mdmdview17markdown_rendererNtB5_16MarkdownRenderer22render_overhauled_cell
FNDA:42,_RNvMs2_NtCsj01YzKchgFg_8mdmdview17markdown_rendererNtB5_16MarkdownRenderer22table_min_column_width
FNDA:76,_RNvMs2_NtCsj01YzKchgFg_8mdmdview17markdown_rendererNtB5_16MarkdownRenderer23is_table_delimiter_line
FNDA:3,_RNvMs2_NtCsj01YzKchgFg_8mdmdview17markdown_rendererNtB5_16MarkdownRenderer23normalize_text_for_test
FNDA:209,_RNvMs2_NtCsj01YzKchgFg_8mdmdview17markdown_rendererNtB5_16MarkdownRenderer23render_text_with_emojis
FNDA:2377,_RNvMs2_NtCsj01YzKchgFg_8mdmdview17markdown_rendererNtB5_16MarkdownRenderer23table_line_info_in_list
FNDA:258,_RNvMs2_NtCsj01YzKchgFg_8mdmdview17markdown_rendererNtB5_16MarkdownRenderer24clear_table_layout_cache
FNDA:54,_RNvMs2_NtCsj01YzKchgFg_8mdmdview17markdown_rendererNtB5_16MarkdownRenderer24find_syntax_for_language
FNDA:32,_RNvMs2_NtCsj01YzKchgFg_8mdmdview17markdown_rendererNtB5_16MarkdownRenderer24persist_resizable_widths
FNDA:135,_RNvMs2_NtCsj01YzKchgFg_8mdmdview17markdown_rendererNtB5_16MarkdownRenderer24render_cell_context_menu
FNDA:8,_RNvMs2_NtCsj01YzKchgFg_8mdmdview17markdown_rendererNtB5_16MarkdownRenderer24render_link_context_menu
FNDA:224,_RNvMs2_NtCsj01YzKchgFg_8mdmdview17markdown_rendererNtB5_16MarkdownRenderer24render_text_context_menu
FNDA:4,_RNvMs2_NtCsj01YzKchgFg_8mdmdview17markdown_rendererNtB5_16MarkdownRenderer24table_layout_cache_stats
FNDA:10,_RNvMs2_NtCsj01YzKchgFg_8mdmdview17markdown_rendererNtB5_16MarkdownRenderer25estimate_table_row_height
FNDA:52,_RNvMs2_NtCsj01YzKchgFg_8mdmdview17markdown_rendererNtB5_16MarkdownRenderer25get_or_load_image_texture
FNDA:16,_RNvMs2_NtCsj01YzKchgFg_8mdmdview17markdown_rendererNtB5_16MarkdownRenderer25get_or_make_emoji_texture
FNDA:19,_RNvMs2_NtCsj01YzKchgFg_8mdmdview17markdown_rendererNtB5_16MarkdownRenderer25render_table_tablebuilder
FNDA:31,_RNvMs2_NtCsj01YzKchgFg_8mdmdview17markdown_rendererNtB5_16MarkdownRenderer25row_needs_height_estimate
FNDA:7860,_RNvMs2_NtCsj01YzKchgFg_8mdmdview17markdown_rendererNtB5_16MarkdownRenderer25table_line_info_with_list
FNDA:44,_RNvMs2_NtCsj01YzKchgFg_8mdmdview17markdown_rendererNtB5_16MarkdownRenderer26compute_table_content_hash
FNDA:24,_RNvMs2_NtCsj01YzKchgFg_8mdmdview17markdown_rendererNtB5_16MarkdownRenderer26estimate_table_cell_height
FNDA:2,_RNvMs2_NtCsj01YzKchgFg_8mdmdview17markdown_rendererNtB5_16MarkdownRenderer26estimate_table_total_width
FNDA:11,_RNvMs2_NtCsj01YzKchgFg_8mdmdview17markdown_rendererNtB5_16MarkdownRenderer26render_highlighted_segment
FNDA:5,_RNvMs2_NtCsj01YzKchgFg_8mdmdview17markdown_rendererNtB5_16MarkdownRenderer27estimate_table_image_height
FNDA:4269,_RNvMs2_NtCsj01YzKchgFg_8mdmdview17markdown_rendererNtB5_16MarkdownRenderer27list_marker_info_any_indent
FNDA:3979,_RNvMs2_NtCsj01YzKchgFg_8mdmdview17markdown_rendererNtB5_16MarkdownRenderer27parent_list_indent_for_line
FNDA:22,_RNvMs2_NtCsj01YzKchgFg_8mdmdview17markdown_rendererNtB5_16MarkdownRenderer27resolve_table_column_widths
FNDA:22,_RNvMs2_NtCsj01YzKchgFg_8mdmdview17markdown_rendererNtB5_16MarkdownRenderer28estimate_table_column_widths
FNDA:1916,_RNvMs2_NtCsj01YzKchgFg_8mdmdview17markdown_rendererNtB5_16MarkdownRenderer28has_pipe_outside_inline_code
FNDA:2145,_RNvMs2_NtCsj01YzKchgFg_8mdmdview17markdown_rendererNtB5_16MarkdownRenderer30parse_inline_spans_with_breaks
FNDA:14,_RNvMs2_NtCsj01YzKchgFg_8mdmdview17markdown_rendererNtB5_16MarkdownRenderer30render_code_block_context_menu
FNDA:24,_RNvMs2_NtCsj01YzKchgFg_8mdmdview17markdown_rendererNtB5_16MarkdownRenderer31render_inline_code_context_menu
FNDA:308,_RNvMs2_NtCsj01YzKchgFg_8mdmdview17markdown_rendererNtB5_16MarkdownRenderer32escape_pipes_in_inline_code_line
FNDA:317,_RNvMs2_NtCsj01YzKchgFg_8mdmdview17markdown_rendererNtB5_16MarkdownRenderer33escape_table_pipes_in_inline_code
FNDA:1,_RNvMs2_NtCsj01YzKchgFg_8mdmdview17markdown_rendererNtB5_16MarkdownRenderer33force_thread_spawn_error_for_test
FNDA:11,_RNvMs2_NtCsj01YzKchgFg_8mdmdview17markdown_rendererNtB5_16MarkdownRenderer33image_source_stale_with_timestamp
FNDA:373,_RNvMs2_NtCsj01YzKchgFg_8mdmdview17markdown_rendererNtB5_16MarkdownRenderer3new
FNDA:215,_RNvMs2_NtCsj01YzKchgFg_8mdmdview17markdown_rendererNtB5_16MarkdownRenderer43render_text_segment_with_optional_highlight
FNDA:272,_RNvMs2_NtCsj01YzKchgFg_8mdmdview17markdown_rendererNtB5_16MarkdownRenderer5parse
FNDA:876,_RNvMs2_NtCsj01YzKchgFg_8mdmdview17markdown_rendererNtB5_16MarkdownRenderer7slugify
FNDA:7,_RNvMs2_NtCsj01YzKchgFg_8mdmdview17markdown_rendererNtB5_16MarkdownRenderer7zoom_in
FNDA:8,_RNvMs2_NtCsj01YzKchgFg_8mdmdview17markdown_rendererNtB5_16MarkdownRenderer8hash_str
FNDA:5,_RNvMs2_NtCsj01YzKchgFg_8mdmdview17markdown_rendererNtB5_16MarkdownRenderer8open_url
FNDA:13,_RNvMs2_NtCsj01YzKchgFg_8mdmdview17markdown_rendererNtB5_16MarkdownRenderer8ui_scale
FNDA:7,_RNvMs2_NtCsj01YzKchgFg_8mdmdview17markdown_rendererNtB5_16MarkdownRenderer8zoom_out
FNDA:180,_RNvMs_NtCsj01YzKchgFg_8mdmdview17markdown_rendererNtB4_15CellLayoutCache3get
FNDA:376,_RNvMs_NtCsj01YzKchgFg_8mdmdview17markdown_rendererNtB4_15CellLayoutCache3new
FNDA:266,_RNvMs_NtCsj01YzKchgFg_8mdmdview17markdown_rendererNtB4_15CellLayoutCache5clear
FNDA:4,_RNvMs_NtCsj01YzKchgFg_8mdmdview17markdown_rendererNtB4_15CellLayoutCache5stats
FNDA:170,_RNvMs_NtCsj01YzKchgFg_8mdmdview17markdown_rendererNtB4_15CellLayoutCache6insert
FNDA:4,_RNvNtCsj01YzKchgFg_8mdmdview17markdown_renderer22force_parse_error_once
FNDA:451,_RNvNtCsj01YzKchgFg_8mdmdview17markdown_renderer23render_action_triggered
FNDA:272,_RNvNtCsj01YzKchgFg_8mdmdview17markdown_renderer23take_forced_parse_error
FNDA:19,_RNvNtCsj01YzKchgFg_8mdmdview17markdown_renderer26take_forced_table_policies
FNDA:2,_RNvNtCsj01YzKchgFg_8mdmdview17markdown_renderer29force_emoji_decode_error_once
FNDA:397,_RNvXNtCsj01YzKchgFg_8mdmdview17markdown_rendererNtB2_9FontSizesNtNtCs3mF4h8B4xym_4core7default7Default7default
FNDA:1,_RNvXs1_NtCsj01YzKchgFg_8mdmdview17markdown_rendererNtB5_16MarkdownRendererNtNtCs3mF4h8B4xym_4core7default7Default7default
FNF:271
FNH:271
DA:55,451
DA:56,451
DA:57,451
DA:65,19
DA:66,19
DA:67,19
DA:70,4
DA:71,4
DA:72,4
DA:75,2
DA:76,2
DA:77,2
DA:80,272
DA:81,272
DA:82,272
DA:98,397
DA:99,397
DA:100,397
DA:101,397
DA:102,397
DA:103,397
DA:104,397
DA:105,397
DA:106,397
DA:107,397
DA:108,397
DA:109,397
DA:190,376
DA:191,376
DA:192,376
DA:193,376
DA:194,376
DA:195,376
DA:196,376
DA:197,376
DA:198,376
DA:200,180
DA:201,180
DA:202,16
DA:203,16
DA:205,164
DA:206,164
DA:208,180
DA:210,170
DA:211,170
DA:212,3
DA:213,2
DA:214,1
DA:215,1
DA:216,1
DA:219,168
DA:220,977
DA:221,170
DA:222,170
DA:223,170
DA:225,266
DA:226,266
DA:227,266
DA:228,266
DA:229,266
DA:230,266
DA:232,4
DA:233,4
DA:234,4
DA:291,376
DA:292,376
DA:293,376
DA:294,376
DA:295,376
DA:296,376
DA:297,376
DA:299,49
DA:300,49
DA:301,49
DA:302,18
DA:303,31
DA:304,49
DA:305,49
DA:307,17
DA:308,17
DA:309,1
DA:310,1
DA:311,1
DA:312,16
DA:313,17
DA:314,2
DA:315,1
DA:316,1
DA:317,1
DA:320,16
DA:321,16
DA:322,17
DA:324,1
DA:325,1
DA:326,1
DA:327,1
DA:330,5
DA:331,5
DA:332,5
DA:334,19
DA:335,19
DA:336,19
DA:337,19
DA:399,1
DA:400,1
DA:401,1
DA:406,160
DA:407,160
DA:408,3
DA:409,157
DA:410,157
DA:411,157
DA:412,157
DA:413,7
DA:414,7
DA:415,3
DA:416,4
DA:417,7
DA:419,190
DA:420,190
DA:421,7
DA:422,7
DA:423,7
DA:424,183
DA:426,183
DA:427,151
DA:428,151
DA:431,157
DA:432,148
DA:433,148
DA:435,157
DA:436,160
DA:438,166
DA:439,166
DA:440,349
DA:441,197
DA:442,173
DA:443,8
DA:444,1
DA:445,183
DA:447,14
DA:452,152
DA:453,152
DA:454,152
DA:455,5
DA:457,147
DA:458,111
DA:459,36
DA:460,36
DA:461,166
DA:463,267
DA:464,267
DA:465,1
DA:466,266
DA:467,266
DA:468,227
DA:471,39
DA:472,39
DA:473,39
DA:474,234
DA:475,234
DA:476,234
DA:477,234
DA:478,234
DA:479,237
DA:480,237
DA:481,237
DA:482,234
DA:485,39
DA:486,39
DA:487,39
DA:488,53
DA:489,14
DA:490,14
DA:491,14
DA:492,14
DA:493,2
DA:494,12
DA:495,14
DA:496,14
DA:497,14
DA:498,14
DA:499,14
DA:500,14
DA:503,39
DA:504,33
DA:505,33
DA:507,39
DA:508,267
DA:511,207
DA:512,207
DA:513,207
DA:514,207
DA:515,207
DA:516,207
DA:517,207
DA:518,207
DA:519,207
DA:520,207
DA:521,207
DA:522,207
DA:523,207
DA:524,207
DA:525,207
DA:526,207
DA:527,207
DA:529,207
DA:530,207
DA:531,207
DA:532,207
DA:533,207
DA:535,207
DA:536,207
DA:537,207
DA:539,450
DA:540,243
DA:541,1
DA:542,1
DA:543,1
DA:544,1
DA:545,1
DA:546,18
DA:547,18
DA:548,18
DA:549,18
DA:550,11
DA:552,7
DA:554,18
DA:556,18
DA:557,18
DA:558,18
DA:559,18
DA:560,18
DA:561,18
DA:562,18
DA:563,18
DA:564,18
DA:565,18
DA:566,18
DA:568,18
DA:569,17
DA:570,17
DA:571,17
DA:572,17
DA:573,17
DA:574,17
DA:575,17
DA:577,7
DA:578,7
DA:579,7
DA:580,7
DA:581,7
DA:582,7
DA:583,7
DA:584,7
DA:585,7
DA:586,7
DA:587,7
DA:588,7
DA:589,7
DA:590,1
DA:591,1
DA:592,1
DA:593,1
DA:594,1
DA:595,1
DA:596,1
DA:597,1
DA:598,1
DA:599,1
DA:600,1
DA:601,1
DA:602,1
DA:603,1
DA:604,1
DA:605,1
DA:606,1
DA:607,1
DA:608,1
DA:609,1
DA:610,1
DA:611,1
DA:612,1
DA:613,1
DA:614,1
DA:615,1
DA:616,1
DA:617,1
DA:618,214
DA:619,214
DA:620,214
DA:621,214
DA:622,214
DA:623,214
DA:624,214
DA:625,214
DA:626,214
DA:627,214
DA:628,214
DA:629,214
DA:630,214
DA:634,207
DA:635,207
DA:636,207
DA:637,207
DA:638,207
DA:639,207
DA:641,224
DA:642,224
DA:643,224
DA:644,224
DA:645,224
DA:646,224
DA:647,224
DA:648,224
DA:649,224
DA:650,224
DA:651,1
DA:652,223
DA:653,223
DA:654,223
DA:655,223
DA:656,223
DA:657,223
DA:658,223
DA:659,223
DA:660,223
DA:661,223
DA:662,223
DA:663,223
DA:665,224
DA:667,3
DA:668,3
DA:669,3
DA:670,3
DA:671,3
DA:672,3
DA:673,3
DA:674,3
DA:675,1
DA:676,2
DA:677,2
DA:678,2
DA:679,2
DA:680,1
DA:681,1
DA:682,1
DA:683,1
DA:685,1
DA:687,2
DA:688,2
DA:689,2
DA:690,2
DA:691,2
DA:692,2
DA:693,2
DA:694,3
DA:697,243
DA:698,243
DA:699,243
DA:700,243
DA:701,243
DA:702,243
DA:703,243
DA:704,243
DA:705,243
DA:706,243
DA:707,243
DA:708,2
DA:709,241
DA:710,241
DA:711,241
DA:712,241
DA:713,241
DA:714,485
DA:715,244
DA:716,244
DA:717,244
DA:718,100
DA:719,144
DA:720,244
DA:721,1
DA:722,243
DA:723,244
DA:724,1
DA:725,243
DA:726,244
DA:727,244
DA:728,3
DA:729,3
DA:730,2
DA:731,2
DA:732,241
DA:733,100
DA:734,1
DA:735,99
DA:736,141
DA:737,244
DA:738,21
DA:739,223
DA:740,244
DA:742,241
DA:743,243
DA:746,373
DA:747,373
DA:748,373
DA:749,373
DA:750,373
DA:751,373
DA:752,373
DA:753,373
DA:754,373
DA:755,373
DA:756,373
DA:757,373
DA:758,373
DA:759,373
DA:760,373
DA:761,373
DA:762,373
DA:763,373
DA:764,373
DA:765,373
DA:766,373
DA:767,373
DA:768,373
DA:769,373
DA:770,373
DA:771,373
DA:772,373
DA:773,373
DA:775,378
DA:776,378
DA:777,377
DA:778,16
DA:779,16
DA:780,9
DA:781,9
DA:782,8
DA:783,8
DA:784,8
DA:785,8
DA:786,8
DA:787,8
DA:788,1
DA:791,7
DA:792,7
DA:793,1
DA:795,6
DA:796,5
DA:797,5
DA:798,5
DA:799,4
DA:800,4
DA:801,4
DA:802,4
DA:803,4
DA:804,4
DA:805,1
DA:808,1
DA:813,16
DA:815,377
DA:816,1
DA:817,377
DA:818,378
DA:820,378
DA:821,378
DA:822,378
DA:823,378
DA:825,378
DA:826,1
DA:827,1
DA:828,1
DA:829,1
DA:830,377
DA:831,377
DA:832,378
DA:835,1
DA:836,1
DA:837,1
DA:841,13
DA:842,13
DA:843,13
DA:844,13
DA:847,2
DA:848,2
DA:849,2
DA:851,317
DA:852,317
DA:853,317
DA:854,317
DA:855,317
DA:856,317
DA:857,317
DA:858,317
DA:859,317
DA:861,317
DA:862,317
DA:863,6660
DA:864,6343
DA:865,6343
DA:866,6343
DA:867,6343
DA:868,6343
DA:869,6343
DA:870,6343
DA:871,3973
DA:872,3973
DA:873,3973
DA:874,18
DA:875,89
DA:877,18
DA:878,13
DA:879,13
DA:880,13
DA:881,13
DA:882,71
DA:883,89
DA:884,76
DA:885,76
DA:886,57
DA:887,57
DA:888,13
DA:889,3884
DA:890,2370
DA:891,6343
DA:892,2106
DA:893,2106
DA:895,4237
DA:897,6343
DA:899,6343
DA:900,120
DA:901,119
DA:902,120
DA:903,16
DA:904,16
DA:905,16
DA:906,16
DA:907,104
DA:908,120
DA:909,120
DA:910,120
DA:911,6223
DA:913,6223
DA:914,16
DA:915,16
DA:916,16
DA:917,16
DA:918,16
DA:919,16
DA:920,16
DA:921,6207
DA:923,6207
DA:924,264
DA:926,260
DA:927,259
DA:928,259
DA:929,236
DA:930,236
DA:931,236
DA:932,23
DA:933,1
DA:934,4
DA:935,28
DA:936,28
DA:937,28
DA:938,28
DA:939,28
DA:940,28
DA:941,5943
DA:943,5943
DA:944,5679
DA:945,5679
DA:946,2100
DA:947,2100
DA:949,3579
DA:951,5679
DA:952,2113
DA:954,3566
DA:956,5679
DA:957,2100
DA:958,2100
DA:960,3579
DA:963,5679
DA:964,3635
DA:965,74
DA:966,74
DA:967,68
DA:968,43
DA:969,43
DA:970,43
DA:971,10
DA:972,10
DA:973,10
DA:974,10
DA:975,10
DA:976,33
DA:977,25
DA:978,68
DA:979,68
DA:980,68
DA:981,68
DA:982,68
DA:983,68
DA:984,68
DA:985,6
DA:986,3561
DA:987,2044
DA:988,264
DA:990,5875
DA:991,5875
DA:994,317
DA:995,317
DA:997,308
DA:998,308
DA:999,127
DA:1000,181
DA:1001,181
DA:1002,181
DA:1003,181
DA:1004,181
DA:1005,181
DA:1006,181
DA:1008,6142
DA:1009,5961
DA:1010,2
DA:1011,2
DA:1012,2
DA:1013,5959
DA:1015,5959
DA:1016,5959
DA:1018,5959
DA:1019,361
DA:1020,2
DA:1021,2
DA:1022,359
DA:1023,359
DA:1024,363
DA:1025,4
DA:1026,4
DA:1027,4
DA:1028,359
DA:1029,179
DA:1030,178
DA:1031,178
DA:1032,178
DA:1033,178
DA:1034,180
DA:1035,180
DA:1036,180
DA:1037,180
DA:1038,180
DA:1039,359
DA:1040,359
DA:1041,5598
DA:1043,5598
DA:1044,54
DA:1045,54
DA:1046,5544
DA:1047,5544
DA:1048,5544
DA:1051,181
DA:1052,5
DA:1053,3
DA:1054,3
DA:1055,179
DA:1057,181
DA:1058,308
DA:1060,39
DA:1061,39
DA:1062,39
DA:1063,3
DA:1064,36
DA:1065,36
DA:1066,36
DA:1067,6
DA:1068,30
DA:1069,30
DA:1070,30
DA:1071,7
DA:1072,19
DA:1073,4
DA:1074,7
DA:1075,1
DA:1077,39
DA:1079,35
DA:1080,35
DA:1081,35
DA:1082,32
DA:1084,3
DA:1086,35
DA:1088,3950
DA:1089,3950
DA:1090,4009
DA:1091,4009
DA:1093,76
DA:1094,76
DA:1095,17
DA:1096,59
DA:1099,1
DA:1100,1
DA:1102,3932
DA:1105,3932
DA:1106,3950
DA:1108,37411
DA:1109,37411
DA:1110,37411
DA:1112,37803
DA:1113,37803
DA:1114,40053
DA:1115,2250
DA:1116,2250
DA:1117,37803
DA:1118,392
DA:1119,392
DA:1120,361
DA:1121,361
DA:1122,392
DA:1123,392
DA:1124,392
DA:1125,37411
DA:1126,37411
DA:1128,37411
DA:1129,37411
DA:1131,7860
DA:1132,7860
DA:1133,7860
DA:1134,81
DA:1135,72
DA:1136,72
DA:1137,9
DA:1138,9
DA:1139,1
DA:1140,8
DA:1141,7779
DA:1142,7787
DA:1143,7860
DA:1145,2377
DA:1146,2377
DA:1147,2377
DA:1148,2144
DA:1149,94
DA:1150,94
DA:1151,2050
DA:1152,2050
DA:1153,2
DA:1154,233
DA:1155,233
DA:1156,2377
DA:1158,14705
DA:1159,14705
DA:1160,14705
DA:1161,14705
DA:1162,16045
DA:1163,1340
DA:1164,1340
DA:1165,1340
DA:1166,14705
DA:1167,15
DA:1168,14690
DA:1169,14690
DA:1170,2
DA:1171,14688
DA:1172,14688
DA:1173,14688
DA:1174,5255
DA:1175,5255
DA:1176,5255
DA:1177,4143
DA:1178,3956
DA:1179,1986
DA:1180,1986
DA:1181,1970
DA:1182,1961
DA:1183,1961
DA:1184,9
DA:1187,7463
DA:1189,7216
DA:1190,7216
DA:1191,7216
DA:1192,7216
DA:1193,13501
DA:1194,13499
DA:1195,6284
DA:1196,6284
DA:1197,6284
DA:1198,6284
DA:1199,6284
DA:1200,6284
DA:1201,1
DA:1202,1
DA:1203,1
DA:1204,1
DA:1205,1
DA:1206,1
DA:1207,1
DA:1208,7214
DA:1211,7216
DA:1212,937
DA:1213,6279
DA:1214,6279
DA:1215,6279
DA:1216,14705
DA:1218,4269
DA:1219,4269
DA:1220,4269
DA:1221,4269
DA:1222,6292
DA:1223,6290
DA:1224,2008
DA:1225,2008
DA:1226,2008
DA:1227,2008
DA:1228,15
DA:1229,15
DA:1230,15
DA:1231,15
DA:1232,15
DA:1233,4267
DA:1236,4269
DA:1237,2
DA:1238,4267
DA:1239,4267
DA:1240,4267
DA:1241,536
DA:1242,536
DA:1243,536
DA:1244,1637
DA:1245,27
DA:1246,16
DA:1247,16
DA:1248,11
DA:1249,5
DA:1250,5
DA:1251,6
DA:1254,3720
DA:1256,541
DA:1257,541
DA:1258,541
DA:1259,541
DA:1260,591
DA:1261,589
DA:1262,49
DA:1263,49
DA:1264,49
DA:1265,49
DA:1266,49
DA:1267,49
DA:1268,1
DA:1269,1
DA:1270,1
DA:1271,1
DA:1272,1
DA:1273,1
DA:1274,1
DA:1275,539
DA:1278,541
DA:1279,491
DA:1280,50
DA:1281,50
DA:1282,50
DA:1283,4269
DA:1285,3979
DA:1286,3979
DA:1287,3979
DA:1288,3979
DA:1289,3979
DA:1290,3979
DA:1291,3979
DA:1292,1
DA:1293,3978
DA:1294,10777
DA:1295,10777
DA:1296,10777
DA:1297,15
DA:1298,10762
DA:1299,10762
DA:1300,33
DA:1301,10729
DA:1302,10729
DA:1303,2382
DA:1304,8347
DA:1305,8347
DA:1306,4183
DA:1307,77
DA:1308,4106
DA:1309,27
DA:1310,4164
DA:1312,27
DA:1313,17
DA:1314,10
DA:1315,4137
DA:1316,3858
DA:1317,279
DA:1319,3884
DA:1320,3979
DA:1322,8580
DA:1323,8580
DA:1324,1
DA:1325,8579
DA:1326,8579
DA:1327,8579
DA:1328,9802
DA:1329,9802
DA:1330,286
DA:1331,9516
DA:1332,9516
DA:1333,1207
DA:1334,1207
DA:1335,1207
DA:1336,1207
DA:1337,17
DA:1338,17
DA:1339,17
DA:1340,17
DA:1341,8292
DA:1344,287
DA:1345,286
DA:1347,1
DA:1349,8580
DA:1351,1916
DA:1352,1916
DA:1353,1601
DA:1354,315
DA:1355,315
DA:1356,315
DA:1357,315
DA:1358,315
DA:1360,510
DA:1361,506
DA:1362,2
DA:1363,2
DA:1364,504
DA:1366,504
DA:1367,504
DA:1369,504
DA:1370,9
DA:1371,1
DA:1372,8
DA:1373,8
DA:1374,11
DA:1375,3
DA:1376,3
DA:1377,3
DA:1378,8
DA:1379,4
DA:1380,3
DA:1381,3
DA:1382,3
DA:1383,4
DA:1384,4
DA:1385,4
DA:1386,4
DA:1387,8
DA:1388,495
DA:1390,495
DA:1391,311
DA:1392,184
DA:1395,4
DA:1396,1916
DA:1398,3873
DA:1399,3873
DA:1400,16
DA:1401,3857
DA:1402,3857
DA:1403,3857
DA:1404,1944
DA:1405,1913
DA:1406,1913
DA:1407,3873
DA:1409,76
DA:1410,76
DA:1411,1
DA:1412,75
DA:1413,75
DA:1414,75
DA:1415,2
DA:1416,73
DA:1417,73
DA:1418,73
DA:1419,1074
DA:1420,1074
DA:1421,613
DA:1422,208
DA:1423,251
DA:1424,2
DA:1427,71
DA:1428,76
DA:1430,6226
DA:1431,6226
DA:1432,6226
DA:1433,6226
DA:1434,4269
DA:1435,4202
DA:1436,67
DA:1437,67
DA:1438,104
DA:1439,101
DA:1440,37
DA:1441,37
DA:1442,64
DA:1445,67
DA:1446,18
DA:1448,49
DA:1450,6226
DA:1452,122
DA:1453,122
DA:1454,122
DA:1455,161
DA:1456,161
DA:1457,56
DA:1458,56
DA:1459,105
DA:1462,122
DA:1463,122
DA:1465,4070
DA:1466,4070
DA:1467,2
DA:1468,8
DA:1469,2
DA:1471,4068
DA:1473,4070
DA:1476,272
DA:1478,272
DA:1479,4
DA:1480,268
DA:1482,268
DA:1483,268
DA:1484,268
DA:1485,268
DA:1487,268
DA:1488,268
DA:1489,268
DA:1490,268
DA:1492,268
DA:1494,268
DA:1495,2647
DA:1496,2379
DA:1497,2379
DA:1499,268
DA:1500,272
DA:1503,2391
DA:1504,2391
DA:1505,2391
DA:1506,2391
DA:1507,2391
DA:1508,2391
DA:1509,2391
DA:1510,2391
DA:1514,718
DA:1515,718
DA:1516,718
DA:1517,717
DA:1518,717
DA:1519,718
DA:1522,2
DA:1523,2
DA:1524,2
DA:1525,2
DA:1526,2
DA:1527,2
DA:1528,2
DA:1529,2
DA:1530,2
DA:1531,2
DA:1532,2
DA:1533,2
DA:1534,1
DA:1536,1
DA:1539,2
DA:1540,2
DA:1542,864
DA:1543,864
DA:1544,864
DA:1545,864
DA:1546,864
DA:1547,864
DA:1548,864
DA:1549,862
DA:1551,2
DA:1553,864
DA:1554,864
DA:1555,864
DA:1556,864
DA:1557,864
DA:1558,864
DA:1559,864
DA:1562,9
DA:1563,9
DA:1564,9
DA:1565,9
DA:1566,9
DA:1567,9
DA:1569,546
DA:1570,546
DA:1571,546
DA:1572,546
DA:1573,546
DA:1574,546
DA:1575,546
DA:1578,208
DA:1579,208
DA:1582,12
DA:1583,28
DA:1584,16
DA:1585,16
DA:1586,12
DA:1588,31
DA:1589,31
DA:1590,31
DA:1591,31
DA:1592,31
DA:1593,31
DA:1594,31
DA:1595,31
DA:1599,1
DA:1602,2391
DA:1605,876
DA:1606,876
DA:1607,876
DA:1608,12044
DA:1609,12044
DA:1610,12044
DA:1611,11167
DA:1612,11167
DA:1613,11167
DA:1614,871
DA:1615,861
DA:1616,861
DA:1617,861
DA:1618,6
DA:1619,6
DA:1620,6
DA:1623,876
DA:1624,2
DA:1625,874
DA:1626,876
DA:1627,876
DA:1629,972
DA:1630,972
DA:1631,1981
DA:1632,1009
DA:1633,984
DA:1634,12
DA:1635,1
DA:1636,998
DA:1637,4
DA:1638,1
DA:1639,6
DA:1640,6
DA:1641,3
DA:1642,3
DA:1643,6
DA:1644,5
DA:1645,4
DA:1646,2
DA:1647,2
DA:1648,4
DA:1649,1
DA:1650,1
DA:1654,972
DA:1655,972
DA:1658,14
DA:1659,14
DA:1660,35
DA:1661,35
DA:1662,9
DA:1663,15
DA:1664,7
DA:1665,8
DA:1666,15
DA:1668,2
DA:1669,2
DA:1670,1
DA:1671,1
DA:1672,2
DA:1674,5
DA:1675,16
DA:1676,22
DA:1677,11
DA:1678,10
DA:1679,10
DA:1680,11
DA:1684,3
DA:1685,6
DA:1686,3
DA:1687,2
DA:1688,2
DA:1689,3
DA:1693,5
DA:1694,5
DA:1698,11
DA:1699,6
DA:1700,5
DA:1701,5
DA:1702,6
DA:1705,15
DA:1706,27
DA:1707,17
DA:1708,16
DA:1709,16
DA:1710,17
DA:1715,5
DA:1716,4
DA:1717,4
DA:1721,14
DA:1722,14
DA:1725,26
DA:1726,26
DA:1727,26
DA:1728,26
DA:1729,26
DA:1730,26
DA:1731,26
DA:1732,26
DA:1733,26
DA:1734,26
DA:1735,26
DA:1737,73
DA:1738,73
DA:1739,4
DA:1740,69
DA:1741,73
DA:1743,89
DA:1744,87
DA:1746,22
DA:1747,22
DA:1748,22
DA:1749,22
DA:1750,21
DA:1751,21
DA:1752,22
DA:1754,5
DA:1755,5
DA:1756,5
DA:1757,5
DA:1758,5
DA:1759,5
DA:1760,5
DA:1761,5
DA:1762,4
DA:1764,1
DA:1766,5
DA:1767,5
DA:1768,5
DA:1769,5
DA:1770,5
DA:1771,5
DA:1772,5
DA:1774,4
DA:1775,4
DA:1776,4
DA:1777,4
DA:1778,4
DA:1779,4
DA:1780,4
DA:1781,4
DA:1782,4
DA:1783,4
DA:1784,4
DA:1785,4
DA:1786,4
DA:1787,4
DA:1788,4
DA:1789,4
DA:1790,4
DA:1791,4
DA:1792,4
DA:1793,3
DA:1794,3
DA:1795,3
DA:1796,3
DA:1797,3
DA:1798,3
DA:1799,3
DA:1800,3
DA:1801,3
DA:1802,2
DA:1803,2
DA:1804,2
DA:1805,2
DA:1806,2
DA:1808,7
DA:1809,7
DA:1810,6
DA:1811,6
DA:1812,7
DA:1813,7
DA:1814,7
DA:1815,7
DA:1818,24
DA:1819,24
DA:1820,16
DA:1821,16
DA:1822,24
DA:1824,1
DA:1825,1
DA:1826,1
DA:1827,1
DA:1828,2
DA:1829,2
DA:1830,2
DA:1831,2
DA:1832,1
DA:1833,1
DA:1834,1
DA:1835,1
DA:1836,1
DA:1837,1
DA:1838,1
DA:1839,1
DA:1840,1
DA:1841,1
DA:1842,1
DA:1843,1
DA:1844,1
DA:1845,1
DA:1846,1
DA:1847,1
DA:1848,1
DA:1849,1
DA:1850,2
DA:1851,2
DA:1852,2
DA:1853,2
DA:1854,2
DA:1855,2
DA:1856,2
DA:1857,2
DA:1858,2
DA:1859,2
DA:1860,2
DA:1861,2
DA:1862,2
DA:1863,2
DA:1864,2
DA:1865,2
DA:1866,2
DA:1867,2
DA:1868,2
DA:1869,2
DA:1870,2
DA:1871,2
DA:1872,2
DA:1873,2
DA:1874,2
DA:1875,2
DA:1876,1
DA:1878,1
DA:1881,2
DA:1883,3
DA:1884,3
DA:1885,3
DA:1886,3
DA:1887,2
DA:1888,2
DA:1889,1
DA:1890,1
DA:1891,2
DA:1893,1
DA:1894,1
DA:1895,1
DA:1899,2
DA:1900,2
DA:1901,1
DA:1902,1
DA:1903,2
DA:1904,26
DA:1907,2145
DA:1908,2145
DA:1909,2145
DA:1910,2145
DA:1911,2145
DA:1912,2145
DA:1913,2145
DA:1914,2145
DA:1915,2145
DA:1916,2145
DA:1918,4644
DA:1919,4641
DA:1920,2143
DA:1921,2143
DA:1923,2142
DA:1924,1742
DA:1925,1742
DA:1926,1742
DA:1927,2142
DA:1929,1979
DA:1930,1979
DA:1931,1979
DA:1932,1979
DA:1933,1979
DA:1935,19
DA:1936,18
DA:1937,11
DA:1938,11
DA:1939,11
DA:1940,18
DA:1941,1
DA:1942,1
DA:1943,1
DA:1944,19
DA:1946,177
DA:1947,177
DA:1948,29
DA:1949,29
DA:1950,148
DA:1951,177
DA:1952,177
DA:1954,20
DA:1955,20
DA:1956,19
DA:1957,18
DA:1958,16
DA:1959,16
DA:1960,16
DA:1961,18
DA:1962,1
DA:1963,1
DA:1964,1
DA:1965,1
DA:1966,20
DA:1969,51
DA:1970,7
DA:1971,7
DA:1972,44
DA:1973,51
DA:1974,51
DA:1975,51
DA:1976,51
DA:1979,209
DA:1980,7
DA:1981,7
DA:1982,202
DA:1983,209
DA:1984,209
DA:1985,209
DA:1986,209
DA:1989,5
DA:1990,4
DA:1991,4
DA:1992,4
DA:1993,5
DA:1994,5
DA:1995,5
DA:1996,5
DA:1998,17
DA:1999,17
DA:2000,8
DA:2001,8
DA:2002,9
DA:2003,17
DA:2004,17
DA:2005,17
DA:2006,17
DA:2007,17
DA:2008,17
DA:2009,17
DA:2010,17
DA:2011,17
DA:2012,17
DA:2013,17
DA:2014,17
DA:2016,20
DA:2017,20
DA:2018,3
DA:2019,3
DA:2020,17
DA:2021,20
DA:2022,20
DA:2023,20
DA:2024,20
DA:2025,20
DA:2026,20
DA:2027,20
DA:2028,20
DA:2029,20
DA:2030,20
DA:2031,20
DA:2032,3
DA:2034,17
DA:2037,20
DA:2039,2
DA:2040,2
DA:2041,2
DA:2045,3
DA:2046,2
DA:2047,2
DA:2049,3
DA:2050,2145
DA:2053,880
DA:2054,880
DA:2055,880
DA:2056,880
DA:2057,880
DA:2058,880
DA:2059,880
DA:2060,880
DA:2063,1905
DA:2064,1905
DA:2065,1905
DA:2066,1905
DA:2067,1905
DA:2068,1905
DA:2069,1905
DA:2070,1905
DA:2071,1905
DA:2073,3831
DA:2074,3830
DA:2075,1906
DA:2076,1906
DA:2078,1904
DA:2080,1907
DA:2081,1907
DA:2082,1907
DA:2083,1907
DA:2084,2
DA:2085,2
DA:2086,2
DA:2087,2
DA:2089,5
DA:2090,3
DA:2091,3
DA:2092,2
DA:2093,2
DA:2095,8
DA:2096,8
DA:2097,6
DA:2098,4
DA:2099,4
DA:2100,2
DA:2101,2
DA:2102,2
DA:2104,4
DA:2106,1926
DA:2109,1
DA:2110,1905
DA:2113,18
DA:2114,18
DA:2115,18
DA:2116,18
DA:2117,18
DA:2118,18
DA:2119,18
DA:2120,18
DA:2123,18
DA:2124,17
DA:2125,16
DA:2126,15
DA:2127,15
DA:2128,1
DA:2129,17
DA:2130,1
DA:2132,39
DA:2133,38
DA:2135,17
DA:2137,20
DA:2138,20
DA:2139,20
DA:2140,1
DA:2142,21
DA:2145,1
DA:2146,18
DA:2149,564
DA:2150,564
DA:2151,564
DA:2152,564
DA:2153,564
DA:2154,564
DA:2155,564
DA:2156,564
DA:2158,2628
DA:2159,2627
DA:2160,563
DA:2162,2063
DA:2163,2063
DA:2164,2063
DA:2165,2063
DA:2166,2086
DA:2167,2086
DA:2168,2057
DA:2169,2057
DA:2170,2086
DA:2173,7096
DA:2174,1
DA:2175,7095
DA:2176,7095
DA:2178,2062
DA:2179,2062
DA:2182,2
DA:2183,2
DA:2184,2
DA:2185,2
DA:2186,1
DA:2187,1
DA:2188,2
DA:2190,5
DA:2191,5
DA:2192,5
DA:2193,5
DA:2194,5
DA:2195,5
DA:2196,5
DA:2197,5
DA:2198,5
DA:2199,5
DA:2200,5
DA:2201,4
DA:2203,1
DA:2205,5
DA:2206,5
DA:2207,5
DA:2208,5
DA:2209,5
DA:2210,5
DA:2211,5
DA:2213,3
DA:2214,3
DA:2215,3
DA:2216,3
DA:2217,3
DA:2218,3
DA:2219,3
DA:2220,3
DA:2221,3
DA:2222,3
DA:2223,2
DA:2224,2
DA:2225,2
DA:2226,2
DA:2227,2
DA:2228,2
DA:2229,2
DA:2230,2
DA:2231,2
DA:2232,2
DA:2234,2
DA:2235,2
DA:2236,2
DA:2237,4
DA:2238,2
DA:2239,2
DA:2240,2
DA:2241,2
DA:2242,2
DA:2243,2
DA:2245,8
DA:2246,8
DA:2247,8
DA:2248,8
DA:2249,8
DA:2250,8
DA:2251,8
DA:2252,8
DA:2253,8
DA:2254,1
DA:2255,1
DA:2256,1
DA:2257,1
DA:2258,1
DA:2259,720
DA:2260,720
DA:2261,720
DA:2262,720
DA:2263,7
DA:2264,7
DA:2265,7
DA:2266,7
DA:2267,7
DA:2268,7
DA:2269,7
DA:2270,7
DA:2271,7
DA:2272,7
DA:2273,1547
DA:2274,1547
DA:2275,1547
DA:2276,1547
DA:2277,1547
DA:2278,1547
DA:2279,7
DA:2280,7
DA:2281,7
DA:2282,7
DA:2283,7
DA:2284,7
DA:2285,7
DA:2286,7
DA:2287,7
DA:2288,7
DA:2289,26
DA:2290,26
DA:2291,26
DA:2292,26
DA:2293,26
DA:2294,26
DA:2295,26
DA:2296,26
DA:2297,26
DA:2298,26
DA:2299,26
DA:2300,26
DA:2301,26
DA:2302,26
DA:2303,4
DA:2304,4
DA:2305,4
DA:2306,4
DA:2307,4
DA:2308,4
DA:2309,4
DA:2310,4
DA:2311,4
DA:2312,4
DA:2313,4
DA:2314,4
DA:2315,1
DA:2317,3
DA:2320,4
DA:2322,2694
DA:2323,2694
DA:2324,2694
DA:2325,2694
DA:2326,4
DA:2327,4
DA:2328,4
DA:2329,4
DA:2330,1
DA:2331,1
DA:2332,1
DA:2336,2063
DA:2337,2063
DA:2339,1
DA:2343,1
DA:2344,564
DA:2347,44
DA:2348,44
DA:2349,44
DA:2350,44
DA:2351,44
DA:2352,44
DA:2353,44
DA:2354,44
DA:2356,298
DA:2357,295
DA:2359,42
DA:2360,134
DA:2361,133
DA:2362,81
DA:2363,81
DA:2364,81
DA:2365,81
DA:2366,81
DA:2367,81
DA:2368,81
DA:2369,81
DA:2370,81
DA:2371,81
DA:2373,41
DA:2374,41
DA:2376,11
DA:2381,211
DA:2382,211
DA:2383,646
DA:2384,645
DA:2385,434
DA:2386,434
DA:2387,434
DA:2388,434
DA:2389,434
DA:2390,434
DA:2391,434
DA:2392,434
DA:2393,434
DA:2394,434
DA:2396,210
DA:2397,210
DA:2398,209
DA:2399,209
DA:2400,210
DA:2402,1
DA:2406,41
DA:2407,1
DA:2410,3
DA:2411,44
DA:2413,90
DA:2414,90
DA:2415,29
DA:2416,29
DA:2417,29
DA:2418,29
DA:2419,1
DA:2420,1
DA:2421,1
DA:2422,1
DA:2423,1
DA:2425,1
DA:2427,1
DA:2428,1
DA:2429,1
DA:2430,1
DA:2431,1
DA:2432,1
DA:2433,1
DA:2434,1
DA:2435,1
DA:2436,1
DA:2437,1
DA:2438,1
DA:2440,1
DA:2441,2
DA:2442,1
DA:2443,1
DA:2444,1
DA:2445,1
DA:2448,1
DA:2449,1
DA:2450,1
DA:2451,1
DA:2452,1
DA:2453,1
DA:2454,1
DA:2455,1
DA:2456,1
DA:2457,1
DA:2458,1
DA:2459,1
DA:2461,1
DA:2463,32
DA:2464,32
DA:2465,13
DA:2466,14
DA:2467,1
DA:2468,1
DA:2469,1
DA:2470,1
DA:2471,1
DA:2474,32
DA:2475,32
DA:2477,32
DA:2478,64
DA:2479,32
DA:2480,32
DA:2481,32
DA:2483,32
DA:2484,32
DA:2485,32
DA:2486,32
DA:2488,4
DA:2489,4
DA:2490,4
DA:2491,13
DA:2492,13
DA:2493,13
DA:2494,7
DA:2495,7
DA:2496,7
DA:2497,7
DA:2498,7
DA:2500,4
DA:2501,4
DA:2502,4
DA:2503,4
DA:2504,4
DA:2505,4
DA:2507,90
DA:2510,23
DA:2511,23
DA:2512,23
DA:2514,23
DA:2516,23
DA:2518,23
DA:2520,23
DA:2521,79
DA:2523,79
DA:2524,79
DA:2525,79
DA:2526,79
DA:2530,23
DA:2531,23
DA:2534,29
DA:2535,29
DA:2537,29
DA:2538,70
DA:2539,41
DA:2540,41
DA:2541,29
DA:2542,29
DA:2545,463
DA:2546,463
DA:2547,5739
DA:2548,5736
DA:2549,5739
DA:2563,5739
DA:2564,460
DA:2565,3
DA:2567,3
DA:2568,15
DA:2569,15
DA:2571,1
DA:2573,1
DA:2574,1
DA:2575,1
DA:2576,1
DA:2577,1
DA:2578,2
DA:2579,2
DA:2580,2
DA:2581,2
DA:2582,1
DA:2583,1
DA:2584,1
DA:2585,1
DA:2586,1
DA:2587,1
DA:2588,8
DA:2591,3
DA:2592,463
DA:2595,3
DA:2596,3
DA:2597,3
DA:2600,248
DA:2601,248
DA:2602,248
DA:2603,248
DA:2604,248
DA:2605,248
DA:2606,248
DA:2607,248
DA:2608,248
DA:2610,248
DA:2611,141
DA:2612,141
DA:2613,141
DA:2614,141
DA:2615,141
DA:2616,141
DA:2617,141
DA:2618,141
DA:2619,22
DA:2621,22
DA:2622,22
DA:2623,22
DA:2624,21
DA:2625,21
DA:2626,21
DA:2627,21
DA:2630,1
DA:2632,22
DA:2633,22
DA:2634,22
DA:2635,22
DA:2636,22
DA:2637,22
DA:2638,22
DA:2640,22
DA:2645,22
DA:2646,22
DA:2647,22
DA:2648,22
DA:2654,51
DA:2655,51
DA:2656,51
DA:2657,51
DA:2658,51
DA:2659,51
DA:2660,51
DA:2661,51
DA:2662,8
DA:2663,8
DA:2664,8
DA:2665,8
DA:2666,8
DA:2667,8
DA:2668,8
DA:2669,8
DA:2670,8
DA:2671,2
DA:2672,2
DA:2673,2
DA:2674,2
DA:2675,2
DA:2676,2
DA:2677,2
DA:2678,2
DA:2679,2
DA:2680,6
DA:2681,6
DA:2682,6
DA:2684,6
DA:2686,4
DA:2688,2
DA:2690,6
DA:2691,6
DA:2692,6
DA:2693,6
DA:2694,6
DA:2695,6
DA:2696,6
DA:2698,6
DA:2699,6
DA:2700,6
DA:2701,6
DA:2702,6
DA:2703,3
DA:2704,3
DA:2705,6
DA:2706,3
DA:2707,3
DA:2711,6
DA:2717,18
DA:2719,18
DA:2720,18
DA:2722,18
DA:2723,7
DA:2727,7
DA:2728,7
DA:2729,7
DA:2730,1
DA:2732,6
DA:2734,7
DA:2735,7
DA:2736,7
DA:2737,7
DA:2738,6
DA:2739,5
DA:2740,2
DA:2741,3
DA:2743,5
DA:2744,5
DA:2745,5
DA:2746,5
DA:2747,5
DA:2749,1
DA:2750,1
DA:2751,7
DA:2754,11
DA:2755,11
DA:2756,11
DA:2757,11
DA:2758,11
DA:2759,11
DA:2760,11
DA:2761,5
DA:2762,6
DA:2763,3
DA:2765,3
DA:2767,11
DA:2768,1
DA:2770,10
DA:2772,11
DA:2773,11
DA:2774,11
DA:2776,11
DA:2777,11
DA:2781,248
DA:2783,12
DA:2784,12
DA:2786,6
DA:2787,6
DA:2788,6
DA:2789,12
DA:2791,29
DA:2792,29
DA:2793,29
DA:2794,28
DA:2795,12
DA:2796,11
DA:2797,29
DA:2799,209
DA:2800,209
DA:2801,209
DA:2802,209
DA:2803,209
DA:2804,209
DA:2805,209
DA:2806,209
DA:2807,4279
DA:2808,4279
DA:2810,8
DA:2811,7
DA:2812,7
DA:2813,7
DA:2814,8
DA:2815,8
DA:2816,8
DA:2817,4271
DA:2818,4271
DA:2819,4271
DA:2821,209
DA:2822,208
DA:2823,208
DA:2824,209
DA:2826,215
DA:2827,215
DA:2828,215
DA:2829,215
DA:2830,215
DA:2831,215
DA:2832,215
DA:2834,215
DA:2835,215
DA:2836,215
DA:2837,215
DA:2838,215
DA:2839,215
DA:2840,215
DA:2842,27
DA:2843,27
DA:2844,27
DA:2845,10
DA:2846,17
DA:2847,17
DA:2848,17
DA:2850,22
DA:2851,193
DA:2852,193
DA:2853,215
DA:2855,213
DA:2856,213
DA:2857,1
DA:2858,212
DA:2859,212
DA:2860,212
DA:2861,81
DA:2862,131
DA:2863,212
DA:2864,13
DA:2865,199
DA:2866,212
DA:2867,1
DA:2868,211
DA:2869,212
DA:2870,212
DA:2871,81
DA:2872,1
DA:2873,80
DA:2874,131
DA:2875,212
DA:2876,7
DA:2877,205
DA:2878,212
DA:2884,212
DA:2885,212
DA:2886,212
DA:2887,212
DA:2892,213
DA:2894,11
DA:2895,11
DA:2896,11
DA:2897,11
DA:2898,11
DA:2899,11
DA:2900,11
DA:2901,11
DA:2902,1
DA:2903,10
DA:2904,10
DA:2905,10
DA:2906,10
DA:2907,10
DA:2909,10
DA:2910,10
DA:2911,10
DA:2912,10
DA:2913,10
DA:2914,3
DA:2915,7
DA:2916,10
DA:2917,1
DA:2918,9
DA:2919,10
DA:2920,1
DA:2921,9
DA:2922,10
DA:2926,10
DA:2927,10
DA:2928,10
DA:2929,10
DA:2934,11
DA:2936,224
DA:2937,224
DA:2938,1
DA:2939,223
DA:2940,224
DA:2941,224
DA:2943,24
DA:2944,24
DA:2945,1
DA:2946,23
DA:2947,24
DA:2949,14
DA:2950,14
DA:2951,14
DA:2952,14
DA:2953,14
DA:2954,14
DA:2955,14
DA:2956,1
DA:2957,13
DA:2958,14
DA:2959,10
DA:2960,10
DA:2962,2
DA:2963,2
DA:2964,8
DA:2965,4
DA:2966,14
DA:2968,8
DA:2969,8
DA:2970,1
DA:2971,1
DA:2972,7
DA:2973,8
DA:2974,8
DA:2975,1
DA:2976,7
DA:2977,8
DA:2978,1
DA:2979,7
DA:2980,8
DA:2982,135
DA:2983,135
DA:2984,1
DA:2985,134
DA:2986,135
DA:2988,9
DA:2989,9
DA:2990,9
DA:2991,9
DA:2994,4316
DA:2995,4316
DA:2996,7
DA:2997,4309
DA:2998,4316
DA:2999,4309
DA:3000,1
DA:3001,4308
DA:3005,4314
DA:3006,6
DA:3007,4302
DA:3008,4302
DA:3009,4316
DA:3011,16
DA:3012,16
DA:3013,1
DA:3014,15
DA:3016,15
DA:3017,7
DA:3020,7
DA:3021,2
DA:3023,5
DA:3031,7
DA:3032,5
DA:3033,5
DA:3034,5
DA:3035,5
DA:3036,5
DA:3038,2
DA:3039,1
DA:3040,1
DA:3044,8
DA:3045,6
DA:3046,2
DA:3049,15
DA:3050,15
DA:3051,15
DA:3054,15
DA:3055,15
DA:3056,15
DA:3057,15
DA:3058,16
DA:3062,8
DA:3063,8
DA:3064,8
DA:3065,8
DA:3066,8
DA:3067,8
DA:3068,23
DA:3069,15
DA:3070,7
DA:3071,1
DA:3072,1
DA:3073,1
DA:3074,1
DA:3076,11
DA:3077,11
DA:3078,11
DA:3079,16
DA:3080,16
DA:3081,5
DA:3082,5
DA:3083,11
DA:3084,16
DA:3085,3
DA:3086,13
DA:3087,13
DA:3088,13
DA:3089,13
DA:3092,13
DA:3094,13
DA:3095,102
DA:3096,13
DA:3097,13
DA:3098,13
DA:3099,3
DA:3100,10
DA:3101,13
DA:3104,2
DA:3105,5
DA:3106,5
DA:3107,3
DA:3108,3
DA:3109,3
DA:3110,5
DA:3111,1
DA:3112,4
DA:3113,4
DA:3114,4
DA:3115,4
DA:3118,4
DA:3119,4
DA:3120,1
DA:3121,3
DA:3122,4
DA:3125,2
DA:3127,2
DA:3128,2
DA:3129,2
DA:3130,2
DA:3131,2
DA:3132,2
DA:3133,2
DA:3134,2
DA:3135,2
DA:3136,1
DA:3137,1
DA:3138,2
DA:3142,8
DA:3143,8
DA:3144,8
DA:3147,102
DA:3148,101
DA:3149,102
DA:3169,102
DA:3171,471
DA:3173,471
DA:3174,448
DA:3175,23
DA:3176,23
DA:3177,23
DA:3178,23
DA:3179,23
DA:3180,370
DA:3181,347
DA:3182,305
DA:3183,5
DA:3184,5
DA:3185,5
DA:3186,4
DA:3187,4
DA:3188,4
DA:3189,1
DA:3190,19
DA:3191,323
DA:3193,343
DA:3194,343
DA:3195,343
DA:3197,23
DA:3198,471
DA:3202,475
DA:3203,475
DA:3204,467
DA:3205,8
DA:3206,8
DA:3207,8
DA:3208,203
DA:3209,195
DA:3211,14
DA:3212,14
DA:3213,14
DA:3214,14
DA:3216,41
DA:3217,38
DA:3218,5
DA:3219,5
DA:3220,33
DA:3221,33
DA:3222,5
DA:3223,28
DA:3224,28
DA:3225,1
DA:3226,27
DA:3227,27
DA:3228,27
DA:3231,14
DA:3232,6
DA:3233,6
DA:3234,6
DA:3236,4
DA:3237,4
DA:3238,10
DA:3239,10
DA:3240,10
DA:3241,181
DA:3242,181
DA:3243,181
DA:3245,8
DA:3246,475
DA:3248,6
DA:3249,6
DA:3250,81
DA:3251,1
DA:3252,2
DA:3253,3
DA:3254,2
DA:3255,1
DA:3256,1
DA:3257,1
DA:3258,1
DA:3259,1
DA:3260,1
DA:3261,2
DA:3262,1
DA:3263,1
DA:3264,1
DA:3265,1
DA:3266,3
DA:3267,3
DA:3268,3
DA:3269,2
DA:3270,2
DA:3271,2
DA:3272,2
DA:3273,4
DA:3274,2
DA:3275,2
DA:3276,2
DA:3277,2
DA:3278,2
DA:3279,2
DA:3280,2
DA:3281,2
DA:3282,2
DA:3283,2
DA:3284,2
DA:3285,4
DA:3286,2
DA:3287,2
DA:3288,2
DA:3289,2
DA:3290,2
DA:3291,2
DA:3292,2
DA:3293,81
DA:3294,6
DA:3295,6
DA:3297,23
DA:3300,23
DA:3301,23
DA:3302,23
DA:3303,23
DA:3305,23
DA:3306,23
DA:3307,22
DA:3308,21
DA:3309,20
DA:3310,4
DA:3312,16
DA:3313,15
DA:3314,14
DA:3315,12
DA:3316,11
DA:3317,9
DA:3318,8
DA:3319,7
DA:3320,6
DA:3321,5
DA:3322,4
DA:3326,360
DA:3327,13760
DA:3328,13760
DA:3329,13760
DA:3330,13760
DA:3331,8823
DA:3332,8823
DA:3337,360
DA:3338,360
DA:3339,360
DA:3340,360
DA:3341,360
DA:3342,360
DA:3343,360
DA:3345,23
DA:3346,23
DA:3348,57
DA:3349,57
DA:3350,57
DA:3351,57
DA:3352,57
DA:3353,57
DA:3354,57
DA:3355,57
DA:3357,57
DA:3358,142
DA:3359,75
DA:3360,75
DA:3361,3
DA:3362,7
DA:3363,7
DA:3364,6
DA:3365,6
DA:3366,6
DA:3367,6
DA:3368,6
DA:3369,7
DA:3370,4
DA:3371,4
DA:3374,139
DA:3378,61
DA:3379,61
DA:3380,61
DA:3381,57
DA:3382,53
DA:3383,53
DA:3384,53
DA:3385,53
DA:3386,53
DA:3387,53
DA:3388,4
DA:3389,4
DA:3392,4
DA:3393,4
DA:3394,7
DA:3395,3
DA:3396,2
DA:3397,2
DA:3398,2
DA:3399,1
DA:3400,4
DA:3401,4
DA:3403,61
DA:3404,206
DA:3405,145
DA:3406,145
DA:3407,61
DA:3409,57
DA:3412,18
DA:3413,18
DA:3414,2
DA:3415,16
DA:3417,16
DA:3418,16
DA:3419,16
DA:3421,57
DA:3422,57
DA:3423,22
DA:3425,35
DA:3428,57
DA:3429,57
DA:3430,55
DA:3431,53
DA:3432,53
DA:3433,53
DA:3434,53
DA:3435,53
DA:3436,53
DA:3437,53
DA:3438,53
DA:3439,53
DA:3441,2
DA:3442,2
DA:3443,2
DA:3444,2
DA:3445,2
DA:3447,2
DA:3448,2
DA:3452,2
DA:3453,2
DA:3454,2
DA:3455,2
DA:3456,2
DA:3458,2
DA:3461,61
DA:3462,4
DA:3463,4
DA:3466,16
DA:3467,18
DA:3469,7
DA:3470,7
DA:3471,7
DA:3472,7
DA:3473,7
DA:3474,7
DA:3475,7
DA:3476,7
DA:3477,2
DA:3478,2
DA:3479,2
DA:3481,5
DA:3482,5
DA:3483,5
DA:3484,5
DA:3485,5
DA:3486,5
DA:3489,7
DA:3492,11
DA:3493,11
DA:3496,11
DA:3497,8
DA:3498,1
DA:3499,1
DA:3500,1
DA:3501,7
DA:3502,3
DA:3504,10
DA:3505,10
DA:3506,10
DA:3507,10
DA:3508,10
DA:3509,10
DA:3510,10
DA:3511,7
DA:3512,7
DA:3513,7
DA:3514,7
DA:3515,7
DA:3516,7
DA:3517,7
DA:3518,7
DA:3521,10
DA:3522,7
DA:3523,7
DA:3524,7
DA:3526,6
DA:3527,6
DA:3529,10
DA:3530,10
DA:3531,10
DA:3533,10
DA:3535,10
DA:3536,73
DA:3538,63
DA:3540,63
DA:3541,4
DA:3542,59
DA:3545,70
DA:3546,16
DA:3547,16
DA:3548,16
DA:3549,16
DA:3550,16
DA:3551,16
DA:3552,16
DA:3553,16
DA:3555,43
DA:3556,43
DA:3557,43
DA:3558,43
DA:3562,43
DA:3563,49
DA:3564,49
DA:3565,45
DA:3566,45
DA:3567,45
DA:3568,45
DA:3570,45
DA:3572,6
DA:3573,6
DA:3574,39
DA:3575,45
DA:3577,6
DA:3578,6
DA:3579,39
DA:3581,45
DA:3582,4
DA:3585,49
DA:3586,6
DA:3587,6
DA:3588,6
DA:3589,6
DA:3590,6
DA:3591,6
DA:3592,43
DA:3596,10
DA:3598,6
DA:3599,1
DA:3600,3
DA:3603,4
DA:3604,4
DA:3605,4
DA:3606,4
DA:3607,4
DA:3609,10
DA:3610,10
DA:3614,10
DA:3615,10
DA:3616,10
DA:3617,10
DA:3623,10
DA:3624,11
DA:3627,1
DA:3628,1
DA:3629,1
DA:3630,1
DA:3632,8
DA:3633,8
DA:3634,8
DA:3635,8
DA:3636,8
DA:3638,577
DA:3639,577
DA:3640,1205
DA:3641,628
DA:3642,600
DA:3643,600
DA:3644,600
DA:3645,600
DA:3646,1
DA:3647,1
DA:3648,1
DA:3649,1
DA:3650,10
DA:3651,10
DA:3652,10
DA:3653,10
DA:3654,1
DA:3655,1
DA:3656,1
DA:3657,1
DA:3658,1
DA:3659,1
DA:3660,1
DA:3661,1
DA:3662,10
DA:3663,10
DA:3664,10
DA:3665,10
DA:3666,10
DA:3667,5
DA:3668,5
DA:3669,5
DA:3670,5
DA:3671,5
DA:3672,5
DA:3675,577
DA:3676,577
DA:3678,23
DA:3679,23
DA:3680,10
DA:3681,7
DA:3682,3
DA:3683,3
DA:3685,23
DA:3687,8
DA:3688,8
DA:3689,1
DA:3690,1
DA:3691,6
DA:3693,8
DA:3695,55
DA:3696,55
DA:3697,55
DA:3698,55
DA:3699,55
DA:3700,55
DA:3701,55
DA:3703,176
DA:3704,176
DA:3705,166
DA:3706,10
DA:3707,5
DA:3709,5
DA:3711,176
DA:3713,4
DA:3714,4
DA:3715,4
DA:3716,4
DA:3717,4
DA:3718,4
DA:3720,23
DA:3721,23
DA:3722,23
DA:3723,23
DA:3724,23
DA:3725,23
DA:3726,23
DA:3727,23
DA:3728,23
DA:3729,1
DA:3730,22
DA:3731,23
DA:3732,23
DA:3733,23
DA:3734,23
DA:3736,44
DA:3737,44
DA:3738,44
DA:3739,44
DA:3740,44
DA:3741,44
DA:3742,44
DA:3743,44
DA:3744,156
DA:3745,112
DA:3746,112
DA:3747,44
DA:3748,67
DA:3749,23
DA:3750,23
DA:3751,44
DA:3752,230
DA:3753,474
DA:3754,287
DA:3755,287
DA:3756,187
DA:3757,187
DA:3758,1
DA:3759,186
DA:3761,44
DA:3762,44
DA:3764,20
DA:3765,20
DA:3766,20
DA:3767,20
DA:3768,20
DA:3769,20
DA:3770,20
DA:3771,20
DA:3772,20
DA:3773,20
DA:3774,20
DA:3775,20
DA:3776,20
DA:3778,2
DA:3779,18
DA:3780,18
DA:3781,18
DA:3782,18
DA:3783,18
DA:3784,18
DA:3785,18
DA:3786,18
DA:3787,18
DA:3788,18
DA:3789,20
DA:3792,5
DA:3793,5
DA:3794,5
DA:3795,5
DA:3796,5
DA:3797,5
DA:3798,5
DA:3799,5
DA:3800,1
DA:3801,4
DA:3803,4
DA:3804,4
DA:3805,4
DA:3806,4
DA:3807,5
DA:3809,136
DA:3810,136
DA:3812,4
DA:3813,132
DA:3814,132
DA:3815,93
DA:3816,93
DA:3817,93
DA:3818,93
DA:3819,93
DA:3820,39
DA:3821,39
DA:3822,136
DA:3824,19
DA:3825,19
DA:3826,19
DA:3827,19
DA:3828,19
DA:3829,19
DA:3830,19
DA:3831,19
DA:3832,19
DA:3833,19
DA:3834,19
DA:3835,19
DA:3837,19
DA:3838,14
DA:3839,14
DA:3840,14
DA:3841,14
DA:3842,19
DA:3843,19
DA:3844,55
DA:3845,19
DA:3847,19
DA:3848,19
DA:3849,19
DA:3850,19
DA:3851,19
DA:3852,19
DA:3853,55
DA:3854,16
DA:3855,20
DA:3856,19
DA:3857,55
DA:3858,19
DA:3859,19
DA:3860,19
DA:3861,19
DA:3862,19
DA:3863,19
DA:3864,55
DA:3865,55
DA:3866,16
DA:3867,20
DA:3868,16
DA:3869,16
DA:3870,16
DA:3871,16
DA:3872,3
DA:3875,39
DA:3876,19
DA:3877,19
DA:3878,19
DA:3879,19
DA:3880,18
DA:3881,17
DA:3882,19
DA:3883,19
DA:3884,19
DA:3885,14
DA:3886,14
DA:3887,14
DA:3888,25
DA:3889,14
DA:3890,14
DA:3891,2
DA:3892,3
DA:3893,2
DA:3894,2
DA:3896,1
DA:3897,1
DA:3898,4
DA:3899,3
DA:3900,3
DA:3901,3
DA:3902,3
DA:3903,3
DA:3905,2
DA:3906,12
DA:3907,5
DA:3908,19
DA:3909,18
DA:3911,14
DA:3912,14
DA:3913,14
DA:3914,37
DA:3915,37
DA:3916,37
DA:3917,37
DA:3918,37
DA:3919,37
DA:3920,37
DA:3921,12
DA:3922,12
DA:3923,12
DA:3924,10
DA:3925,10
DA:3926,12
DA:3928,11
DA:3929,11
DA:3930,11
DA:3931,11
DA:3932,11
DA:3933,1
DA:3934,10
DA:3935,11
DA:3937,12
DA:3938,12
DA:3939,1
DA:3941,11
DA:3943,12
DA:3944,1
DA:3945,11
DA:3946,12
DA:3949,2
DA:3950,1
DA:3952,1
DA:3956,37
DA:3957,14
DA:3960,19
DA:3961,19
DA:3962,19
DA:3963,19
DA:3964,19
DA:3965,19
DA:3966,19
DA:3967,19
DA:3968,19
DA:3969,19
DA:3970,19
DA:3972,19
DA:3974,19
DA:3975,19
DA:3976,2
DA:3977,17
DA:3979,19
DA:3980,19
DA:3981,19
DA:3982,19
DA:3983,19
DA:3985,19
DA:3986,18
DA:3987,18
DA:3988,18
DA:3989,18
DA:3990,18
DA:3991,18
DA:3992,18
DA:3993,18
DA:3994,18
DA:3995,47
DA:3996,47
DA:3997,47
DA:3998,47
DA:3999,47
DA:4000,47
DA:4001,47
DA:4002,47
DA:4004,47
DA:4006,47
DA:4007,47
DA:4008,47
DA:4009,18
DA:4010,18
DA:4012,19
DA:4013,19
DA:4014,27
DA:4015,19
DA:4016,19
DA:4017,18
DA:4018,18
DA:4019,18
DA:4020,18
DA:4022,18
DA:4023,26
DA:4024,26
DA:4025,8
DA:4026,8
DA:4027,8
DA:4028,8
DA:4029,8
DA:4030,8
DA:4031,8
DA:4032,8
DA:4033,8
DA:4034,18
DA:4036,1
DA:4040,19
DA:4041,19
DA:4042,19
DA:4044,19
DA:4045,74
DA:4046,55
DA:4047,55
DA:4053,19
DA:4054,19
DA:4058,19
DA:4059,19
DA:4062,19
DA:4065,19
DA:4066,19
DA:4068,19
DA:4069,19
DA:4070,19
DA:4071,19
DA:4072,55
DA:4073,55
DA:4074,55
DA:4075,55
DA:4076,55
DA:4077,55
DA:4078,55
DA:4079,55
DA:4080,55
DA:4082,55
DA:4083,55
DA:4087,55
DA:4088,55
DA:4089,19
DA:4090,36
DA:4091,55
DA:4093,19
DA:4094,19
DA:4097,19
DA:4101,19
DA:4103,19
DA:4104,27
DA:4105,27
DA:4106,27
DA:4107,27
DA:4108,74
DA:4109,74
DA:4110,74
DA:4111,74
DA:4112,74
DA:4113,74
DA:4114,74
DA:4115,74
DA:4116,74
DA:4117,74
DA:4118,74
DA:4119,74
DA:4120,74
DA:4121,74
DA:4122,74
DA:4123,74
DA:4124,74
DA:4125,74
DA:4126,74
DA:4128,74
DA:4129,74
DA:4130,18
DA:4131,56
DA:4132,74
DA:4133,74
DA:4135,27
DA:4136,26
DA:4137,26
DA:4138,27
DA:4139,27
DA:4140,27
DA:4141,19
DA:4143,19
DA:4146,19
DA:4147,19
DA:4148,19
DA:4149,19
DA:4150,19
DA:4151,18
DA:4152,18
DA:4154,19
DA:4155,19
DA:4156,19
DA:4157,19
DA:4158,19
DA:4159,19
DA:4160,19
DA:4161,19
DA:4162,19
DA:4163,19
DA:4164,19
DA:4165,19
DA:4166,19
DA:4169,19
DA:4170,19
DA:4171,19
DA:4172,19
DA:4173,19
DA:4174,19
DA:4175,19
DA:4176,19
DA:4178,19
DA:4179,17
DA:4180,17
DA:4181,19
DA:4182,19
DA:4183,19
DA:4185,19
DA:4186,5
DA:4187,5
DA:4188,5
DA:4189,5
DA:4190,5
DA:4191,5
DA:4192,5
DA:4193,5
DA:4194,14
DA:4195,14
DA:4196,14
DA:4197,19
DA:4199,25
DA:4200,25
DA:4201,25
DA:4202,25
DA:4203,25
DA:4204,25
DA:4205,25
DA:4206,25
DA:4207,25
DA:4208,25
DA:4210,25
DA:4211,18
DA:4212,1
DA:4213,1
DA:4214,5
DA:4220,25
DA:4221,25
DA:4225,25
DA:4226,25
DA:4227,25
DA:4228,25
DA:4229,25
DA:4230,25
DA:4231,25
DA:4232,25
DA:4233,25
DA:4234,25
DA:4235,25
DA:4236,25
DA:4237,25
DA:4238,25
DA:4239,23
DA:4240,23
DA:4241,23
DA:4242,23
DA:4243,2
DA:4246,25
DA:4247,2
DA:4248,2
DA:4249,2
DA:4250,2
DA:4251,25
DA:4252,25
DA:4253,25
DA:4255,31
DA:4256,72
DA:4257,80
DA:4258,1
DA:4259,73
DA:4260,1
DA:4261,1
DA:4262,1
DA:4263,1
DA:4264,79
DA:4265,80
DA:4266,72
DA:4267,31
DA:4269,42
DA:4270,42
DA:4271,42
DA:4273,22
DA:4274,22
DA:4275,22
DA:4276,22
DA:4277,22
DA:4278,22
DA:4279,22
DA:4280,1
DA:4281,21
DA:4283,21
DA:4284,21
DA:4285,21
DA:4286,21
DA:4287,21
DA:4288,21
DA:4291,21
DA:4292,21
DA:4293,21
DA:4294,60
DA:4295,60
DA:4296,60
DA:4297,60
DA:4298,60
DA:4299,60
DA:4300,16
DA:4301,23
DA:4302,23
DA:4304,17
DA:4305,4
DA:4307,60
DA:4308,60
DA:4309,21
DA:4310,22
DA:4312,22
DA:4313,22
DA:4314,22
DA:4315,22
DA:4316,22
DA:4317,22
DA:4318,22
DA:4319,22
DA:4320,22
DA:4321,22
DA:4322,22
DA:4323,22
DA:4324,56
DA:4325,19
DA:4326,20
DA:4327,14
DA:4328,3
DA:4329,56
DA:4330,56
DA:4331,22
DA:4333,22
DA:4334,1
DA:4335,21
DA:4336,21
DA:4337,21
DA:4338,2
DA:4339,6
DA:4340,4
DA:4341,4
DA:4342,19
DA:4343,21
DA:4344,22
DA:4347,2
DA:4348,2
DA:4349,2
DA:4350,2
DA:4351,2
DA:4352,2
DA:4353,2
DA:4354,1
DA:4355,1
DA:4356,1
DA:4357,1
DA:4358,1
DA:4359,1
DA:4360,2
DA:4362,10
DA:4363,10
DA:4364,10
DA:4365,10
DA:4366,10
DA:4367,10
DA:4368,10
DA:4369,10
DA:4370,10
DA:4371,10
DA:4372,10
DA:4373,22
DA:4374,22
DA:4375,22
DA:4376,1
DA:4377,21
DA:4378,21
DA:4379,21
DA:4380,21
DA:4381,21
DA:4382,21
DA:4383,21
DA:4384,21
DA:4385,21
DA:4387,10
DA:4388,10
DA:4390,24
DA:4391,24
DA:4392,24
DA:4393,24
DA:4394,24
DA:4395,24
DA:4396,24
DA:4397,24
DA:4398,24
DA:4399,24
DA:4400,1
DA:4401,23
DA:4402,23
DA:4403,23
DA:4404,24
DA:4405,24
DA:4406,1
DA:4407,23
DA:4408,24
DA:4409,21
DA:4410,21
DA:4411,21
DA:4412,21
DA:4414,1
DA:4415,1
DA:4416,1
DA:4417,2
DA:4418,2
DA:4419,2
DA:4422,23
DA:4423,24
DA:4425,5
DA:4426,5
DA:4427,5
DA:4428,5
DA:4429,5
DA:4430,5
DA:4431,5
DA:4432,1
DA:4434,4
DA:4435,4
DA:4436,4
DA:4437,4
DA:4438,4
DA:4439,4
DA:4440,4
DA:4441,4
DA:4442,3
DA:4444,1
DA:4446,4
DA:4447,4
DA:4448,3
DA:4449,2
DA:4450,2
DA:4451,1
DA:4452,4
DA:4453,5
DA:4455,243
DA:4456,243
DA:4457,243
DA:4459,28
DA:4460,28
DA:4461,28
DA:4462,28
DA:4463,28
DA:4464,28
DA:4465,28
DA:4466,2
DA:4467,1
DA:4469,1
DA:4471,2
DA:4472,28
DA:4473,28
DA:4475,27
DA:4476,27
DA:4477,27
DA:4478,27
DA:4479,27
DA:4480,27
DA:4481,27
DA:4482,27
DA:4484,19
DA:4485,19
DA:4486,19
DA:4487,19
DA:4488,19
DA:4490,19
DA:4491,19
DA:4492,19
DA:4493,19
DA:4495,27
DA:4496,27
DA:4497,27
DA:4498,27
DA:4500,20
DA:4501,20
DA:4502,1
DA:4503,19
DA:4504,19
DA:4505,19
DA:4506,55
DA:4507,55
DA:4508,2
DA:4509,53
DA:4511,20
DA:4513,32
DA:4514,32
DA:4515,3
DA:4516,29
DA:4517,29
DA:4518,29
DA:4523,29
DA:4524,1
DA:4525,28
DA:4527,64
DA:4528,64
DA:4529,29
DA:4530,29
DA:4531,26
DA:4532,26
DA:4533,35
DA:4535,32
DA:4537,20
DA:4538,20
DA:4539,1
DA:4540,19
DA:4541,19
DA:4542,19
DA:4543,20
DA:4545,22
DA:4546,22
DA:4547,3
DA:4548,3
DA:4549,3
DA:4550,3
DA:4551,2
DA:4552,2
DA:4553,2
DA:4554,19
DA:4555,22
DA:4567,23
DA:4568,23
DA:4569,23
DA:4570,23
DA:4571,23
DA:4572,23
DA:4573,23
DA:4574,23
DA:4575,23
DA:4576,23
DA:4577,23
DA:4578,1
DA:4579,22
DA:4580,22
DA:4581,22
DA:4582,22
DA:4583,22
DA:4584,22
DA:4585,22
DA:4586,22
DA:4587,22
DA:4590,22
DA:4591,22
DA:4594,22
DA:4595,20
DA:4596,39
DA:4597,20
DA:4598,20
DA:4599,20
DA:4600,39
DA:4601,39
DA:4602,39
DA:4603,39
DA:4604,39
DA:4605,39
DA:4606,2
DA:4609,22
DA:4610,21
DA:4611,21
DA:4612,20
DA:4613,20
DA:4614,1
DA:4617,22
DA:4618,23
DA:4621,132
DA:4622,132
DA:4623,132
DA:4624,132
DA:4625,132
DA:4626,132
DA:4627,132
DA:4628,132
DA:4629,132
DA:4630,132
DA:4631,132
DA:4632,132
DA:4633,132
DA:4634,132
DA:4635,132
DA:4636,132
DA:4637,132
DA:4638,132
DA:4639,132
DA:4640,132
DA:4641,4
DA:4642,4
DA:4643,4
DA:4645,4
DA:4646,128
DA:4647,257
DA:4648,129
DA:4649,125
DA:4650,125
DA:4651,125
DA:4652,125
DA:4653,125
DA:4654,125
DA:4655,125
DA:4656,125
DA:4657,125
DA:4658,125
DA:4659,125
DA:4660,125
DA:4661,1
DA:4662,1
DA:4663,1
DA:4664,3
DA:4665,3
DA:4666,3
DA:4669,132
DA:4671,132
DA:4672,132
DA:4674,133
DA:4675,133
DA:4676,133
DA:4677,133
DA:4678,133
DA:4679,133
DA:4680,133
DA:4681,133
DA:4682,133
DA:4683,133
DA:4684,133
DA:4685,133
DA:4686,133
DA:4687,133
DA:4688,133
DA:4689,19
DA:4690,114
DA:4692,133
DA:4698,133
DA:4699,3
DA:4700,3
DA:4701,3
DA:4702,2
DA:4703,2
DA:4704,130
DA:4706,133
DA:4707,133
DA:4710,176
DA:4711,176
DA:4712,176
DA:4713,176
DA:4714,176
DA:4715,176
DA:4716,176
DA:4717,176
DA:4718,176
DA:4719,176
DA:4720,176
DA:4721,176
DA:4722,176
DA:4723,176
DA:4724,176
DA:4725,176
DA:4726,176
DA:4727,176
DA:4728,176
DA:4729,176
DA:4730,176
DA:4731,176
DA:4732,176
DA:4733,176
DA:4734,176
DA:4735,176
DA:4736,176
DA:4737,176
DA:4738,176
DA:4739,13
DA:4740,163
DA:4741,163
DA:4742,163
DA:4743,163
DA:4744,163
DA:4745,163
DA:4746,176
DA:4748,136
DA:4749,136
DA:4750,136
DA:4751,136
DA:4752,136
DA:4753,136
DA:4754,136
DA:4755,136
DA:4756,5
DA:4757,5
DA:4758,1
DA:4759,4
DA:4760,4
DA:4761,4
DA:4762,4
DA:4763,4
DA:4764,4
DA:4765,4
DA:4766,4
DA:4767,136
DA:4769,142
DA:4770,142
DA:4771,142
DA:4772,5
DA:4773,137
DA:4774,5
DA:4776,132
DA:4778,142
DA:4779,142
DA:4781,2
DA:4782,2
DA:4783,2
DA:4784,2
DA:4785,2
DA:4786,2
DA:4787,2
DA:4789,2
DA:4792,8
DA:4793,8
DA:4794,8
DA:4795,1
DA:4796,7
DA:4797,7
DA:4798,7
DA:4799,7
DA:4801,7
DA:4802,2
DA:4803,6
DA:4804,2
DA:4805,5
DA:4806,3
DA:4807,3
DA:4808,2
DA:4809,4
DA:4811,1
DA:4814,2
DA:4815,2
DA:4816,2
DA:4817,2
DA:4818,2
DA:4819,6
DA:4820,2
DA:4821,2
DA:4822,6
DA:4823,6
DA:4824,6
DA:4825,2
DA:4828,7
DA:4829,8
DA:4840,5
DA:4842,12
DA:4843,12
DA:4844,6
DA:4845,6
DA:4846,5
DA:4847,5
DA:4848,1
DA:4849,1
DA:4850,12
DA:4852,10
DA:4853,10
DA:4854,10
DA:4857,26
DA:4858,26
DA:4859,26
DA:4862,3
DA:4863,3
DA:4864,3
DA:4867,14
DA:4868,14
DA:4869,14
DA:4871,19
DA:4872,19
DA:4873,19
DA:4874,19
DA:4875,67
DA:4876,67
DA:4877,67
DA:4878,67
DA:4879,67
DA:4880,67
DA:4881,67
DA:4882,19
DA:4883,19
DA:4885,10
DA:4886,10
DA:4887,10
DA:4890,29
DA:4891,29
DA:4892,29
DA:4893,29
DA:4895,29
DA:4896,29
DA:4897,21
DA:4898,8
DA:4899,8
DA:4901,8
DA:4902,29
DA:4904,258
DA:4905,258
DA:4906,258
DA:4907,258
DA:4908,258
DA:4910,4
DA:4911,4
DA:4912,4
DA:4914,2
DA:4915,2
DA:4916,2
DA:4919,55
DA:4920,55
DA:4921,45
DA:4922,1
DA:4923,1
DA:4924,2
DA:4925,2
DA:4926,4
DA:4927,5
DA:4928,3
DA:4929,1
DA:4930,2
DA:4931,3
DA:4934,2
DA:4936,2
DA:4937,2
DA:4938,5
DA:4939,3
DA:4940,1
DA:4941,2
DA:4942,3
DA:4944,2
DA:4946,1
DA:4948,3
DA:4949,3
DA:4952,3
DA:4953,7
DA:4954,4
DA:4955,1
DA:4956,3
DA:4957,4
DA:4959,6
DA:4960,7
DA:4961,4
DA:4962,4
DA:4963,4
DA:4965,3
DA:4968,55
DA:4971,74
DA:4972,74
DA:4973,34
DA:4974,40
DA:4975,40
DA:4976,40
DA:4977,74
DA:4979,38
DA:4980,38
DA:4981,44
DA:4982,6
DA:4984,5
DA:4985,5
DA:4986,5
DA:4987,5
DA:4988,5
DA:4989,5
DA:4990,5
DA:4991,5
DA:4992,5
DA:4993,5
DA:4994,5
DA:4995,5
DA:4996,1
DA:4997,1
DA:4998,1
DA:4999,1
DA:5002,38
DA:5003,5
DA:5004,33
DA:5005,38
DA:5006,38
DA:5008,14
DA:5009,14
DA:5010,12
DA:5011,1
DA:5012,1
DA:5014,14
DA:5016,22
DA:5017,22
DA:5018,22
DA:5019,3
DA:5020,2
DA:5021,1
DA:5022,19
DA:5023,20
DA:5024,20
DA:5025,22
DA:5027,8
DA:5028,8
DA:5029,8
DA:5030,8
DA:5031,8
DA:5032,8
DA:5033,8
DA:5034,8
DA:5036,31
DA:5037,31
DA:5039,7
DA:5040,24
DA:5041,24
DA:5042,24
DA:5043,1
DA:5044,23
DA:5045,23
DA:5046,5
DA:5047,5
DA:5048,18
DA:5049,18
DA:5050,31
DA:5052,52
DA:5053,52
DA:5054,52
DA:5055,52
DA:5056,52
DA:5058,52
DA:5059,7
DA:5060,45
DA:5062,45
DA:5063,45
DA:5066,45
DA:5067,45
DA:5068,16
DA:5069,5
DA:5071,11
DA:5073,16
DA:5074,15
DA:5075,1
DA:5076,1
DA:5077,29
DA:5080,30
DA:5081,10
DA:5082,20
DA:5084,20
DA:5085,1
DA:5086,19
DA:5088,19
DA:5089,8
DA:5091,11
DA:5092,6
DA:5093,6
DA:5094,5
DA:5095,5
DA:5098,13
DA:5099,13
DA:5100,13
DA:5101,13
DA:5102,13
DA:5103,12
DA:5104,12
DA:5105,12
DA:5106,12
DA:5107,13
DA:5108,52
DA:5110,15
DA:5111,15
DA:5112,15
DA:5114,11
DA:5115,11
DA:5116,11
DA:5117,11
DA:5118,11
DA:5119,8
DA:5120,1
DA:5121,1
DA:5122,1
DA:5124,11
DA:5126,14
DA:5127,14
DA:5128,6
DA:5129,8
DA:5130,8
DA:5131,8
DA:5132,14
DA:5134,7
DA:5135,7
DA:5136,7
DA:5137,7
DA:5138,7
DA:5139,7
DA:5140,7
DA:5141,7
DA:5142,7
DA:5143,7
DA:5144,7
DA:5145,7
DA:5146,7
DA:5147,7
DA:5148,7
DA:5149,7
DA:5152,45
DA:5153,45
DA:5155,45
DA:5157,29
DA:5158,27
DA:5159,1
DA:5161,26
DA:5163,45
DA:5167,54
DA:5169,54
DA:5172,54
DA:5173,1
DA:5174,53
DA:5177,53
DA:5178,9
DA:5179,44
DA:5182,44
DA:5183,44
DA:5184,36
DA:5185,34
DA:5186,32
DA:5187,30
DA:5188,28
DA:5189,24
DA:5190,20
DA:5191,17
DA:5192,16
DA:5193,15
DA:5194,14
DA:5195,13
DA:5196,12
DA:5197,11
DA:5198,10
DA:5199,9
DA:5200,8
DA:5201,7
DA:5202,6
DA:5203,4
DA:5207,44
DA:5208,44
DA:5209,44
DA:5210,54
DA:5213,7
DA:5214,7
DA:5215,7
DA:5216,7
DA:5217,7
DA:5218,7
DA:5219,7
DA:5220,7
DA:5221,7
DA:5222,7
DA:5223,7
DA:5226,7
DA:5227,7
DA:5228,7
DA:5229,7
DA:5230,7
DA:5231,7
DA:5232,7
DA:5233,7
DA:5234,7
DA:5235,7
DA:5236,7
DA:5239,5
DA:5240,5
DA:5241,5
DA:5242,5
DA:5245,4
DA:5246,4
DA:5247,4
DA:5248,4
DA:5249,4
DA:5250,4
DA:5251,4
DA:5252,4
DA:5253,4
DA:5254,4
DA:5255,4
DA:5256,4
DA:5257,4
BRF:0
BRH:0
LF:4148
LH:4148
end_of_record
SF:C:\language\mdmdview\src\mermaid_renderer.rs
FN:1338,_RNvMs1_NtCsj01YzKchgFg_8mdmdview16mermaid_rendererNtB5_12TextMeasurer12measure_text
FN:1432,_RNvMs1_NtCsj01YzKchgFg_8mdmdview16mermaid_rendererNtB5_12TextMeasurer16fallback_measure
FN:1366,_RNvMs1_NtCsj01YzKchgFg_8mdmdview16mermaid_rendererNtB5_12TextMeasurer17measure_with_face
FN:1313,_RNvMs1_NtCsj01YzKchgFg_8mdmdview16mermaid_rendererNtB5_12TextMeasurer3new
FN:2275,_RNvMs2_NtCsj01YzKchgFg_8mdmdview16mermaid_rendererNtB5_13MermaidWorker10format_dim
FN:1688,_RNvMs2_NtCsj01YzKchgFg_8mdmdview16mermaid_rendererNtB5_13MermaidWorker10render_svg
FN:2286,_RNvMs2_NtCsj01YzKchgFg_8mdmdview16mermaid_rendererNtB5_13MermaidWorker11process_job
FN:1891,_RNvMs2_NtCsj01YzKchgFg_8mdmdview16mermaid_rendererNtB5_13MermaidWorker11upsert_attr
FN:2037,_RNvMs2_NtCsj01YzKchgFg_8mdmdview16mermaid_rendererNtB5_13MermaidWorker12read_r_value
FN:1874,_RNvMs2_NtCsj01YzKchgFg_8mdmdview16mermaid_rendererNtB5_13MermaidWorker12replace_attr
FN:2368,_RNvMs2_NtCsj01YzKchgFg_8mdmdview16mermaid_rendererNtB5_13MermaidWorker13bbox_is_valid
FN:2181,_RNvMs2_NtCsj01YzKchgFg_8mdmdview16mermaid_rendererNtB5_13MermaidWorker13find_svg_attr
FN:2388,_RNvMs2_NtCsj01YzKchgFg_8mdmdview16mermaid_rendererNtB5_13MermaidWorker13rasterize_svg
FN:1747,_RNvMs2_NtCsj01YzKchgFg_8mdmdview16mermaid_rendererNtB5_13MermaidWorker14maybe_dump_svg
FN:2226,_RNvMs2_NtCsj01YzKchgFg_8mdmdview16mermaid_rendererNtB5_13MermaidWorker14strip_svg_attr
FN:2029,_RNvMs2_NtCsj01YzKchgFg_8mdmdview16mermaid_rendererNtB5_13MermaidWorker15find_circle_tag
FN:1563,_RNvMs2_NtCsj01YzKchgFg_8mdmdview16mermaid_rendererNtB5_13MermaidWorker15format_js_error
FN:2241,_RNvMs2_NtCsj01YzKchgFg_8mdmdview16mermaid_rendererNtB5_13MermaidWorker15insert_svg_attr
FN:1724,_RNvMs2_NtCsj01YzKchgFg_8mdmdview16mermaid_rendererNtB5_13MermaidWorker15map_init_result
FN:2205,_RNvMs2_NtCsj01YzKchgFg_8mdmdview16mermaid_rendererNtB5_13MermaidWorker15remove_svg_attr
FN:1778,_RNvMs2_NtCsj01YzKchgFg_8mdmdview16mermaid_rendererNtB5_13MermaidWorker16maybe_dump_error
FN:1463,_RNvMs2_NtCsj01YzKchgFg_8mdmdview16mermaid_rendererNtB5_13MermaidWorker16patch_mermaid_js
FN:2188,_RNvMs2_NtCsj01YzKchgFg_8mdmdview16mermaid_rendererNtB5_13MermaidWorker16replace_svg_attr
FN:1818,_RNvMs2_NtCsj01YzKchgFg_8mdmdview16mermaid_rendererNtB5_13MermaidWorker18normalize_svg_size
FN:2360,_RNvMs2_NtCsj01YzKchgFg_8mdmdview16mermaid_rendererNtB5_13MermaidWorker18parse_raw_svg_tree
FN:2253,_RNvMs2_NtCsj01YzKchgFg_8mdmdview16mermaid_rendererNtB5_13MermaidWorker18parse_viewbox_dims
FN:2377,_RNvMs2_NtCsj01YzKchgFg_8mdmdview16mermaid_rendererNtB5_13MermaidWorker18should_resize_bbox
FN:2518,_RNvMs2_NtCsj01YzKchgFg_8mdmdview16mermaid_rendererNtB5_13MermaidWorker19image_href_resolver
FN:1911,_RNvMs2_NtCsj01YzKchgFg_8mdmdview16mermaid_rendererNtB5_13MermaidWorker20flatten_svg_switches
FN:1731,_RNvMs2_NtCsj01YzKchgFg_8mdmdview16mermaid_rendererNtB5_13MermaidWorker20format_render_result
FN:2044,_RNvMs2_NtCsj01YzKchgFg_8mdmdview16mermaid_rendererNtB5_13MermaidWorker21fix_state_end_circles
FN:2142,_RNvMs2_NtCsj01YzKchgFg_8mdmdview16mermaid_rendererNtB5_13MermaidWorker22fix_er_attribute_fills
FN:1964,_RNvMs2_NtCsj01YzKchgFg_8mdmdview16mermaid_rendererNtB5_13MermaidWorker24fix_journey_section_text
FN:2527,_RNvMs2_NtCsj01YzKchgFg_8mdmdview16mermaid_rendererNtB5_13MermaidWorker24scale_adjustment_for_svg
FN:1599,_RNvMs2_NtCsj01YzKchgFg_8mdmdview16mermaid_rendererNtB5_13MermaidWorker3new
FN:2536,_RNvMs2_NtCsj01YzKchgFg_8mdmdview16mermaid_rendererNtB5_13MermaidWorker6now_ms
FN:567,_RNvMs_NtCsj01YzKchgFg_8mdmdview16mermaid_rendererNtB4_15MermaidRenderer11begin_frame
FN:556,_RNvMs_NtCsj01YzKchgFg_8mdmdview16mermaid_rendererNtB4_15MermaidRenderer11has_pending
FN:1220,_RNvMs_NtCsj01YzKchgFg_8mdmdview16mermaid_rendererNtB4_15MermaidRenderer11json_escape
FN:886,_RNvMs_NtCsj01YzKchgFg_8mdmdview16mermaid_rendererNtB4_15MermaidRenderer11texture_key
FN:572,_RNvMs_NtCsj01YzKchgFg_8mdmdview16mermaid_rendererNtB4_15MermaidRenderer12render_block
FN:849,_RNvMs_NtCsj01YzKchgFg_8mdmdview16mermaid_rendererNtB4_15MermaidRenderer12scale_bucket
FN:842,_RNvMs_NtCsj01YzKchgFg_8mdmdview16mermaid_rendererNtB4_15MermaidRenderer12width_bucket
FN:878,_RNvMs_NtCsj01YzKchgFg_8mdmdview16mermaid_rendererNtB4_15MermaidRenderer14mermaid_bg_key
FN:1236,_RNvMs_NtCsj01YzKchgFg_8mdmdview16mermaid_rendererNtB4_15MermaidRenderer15mermaid_bg_fill
FN:1256,_RNvMs_NtCsj01YzKchgFg_8mdmdview16mermaid_rendererNtB4_15MermaidRenderer15parse_hex_color
FN:872,_RNvMs_NtCsj01YzKchgFg_8mdmdview16mermaid_rendererNtB4_15MermaidRenderer17scale_from_bucket
FN:978,_RNvMs_NtCsj01YzKchgFg_8mdmdview16mermaid_rendererNtB4_15MermaidRenderer18mermaid_timeout_ms
FN:953,_RNvMs_NtCsj01YzKchgFg_8mdmdview16mermaid_rendererNtB4_15MermaidRenderer19enqueue_mermaid_job
FN:854,_RNvMs_NtCsj01YzKchgFg_8mdmdview16mermaid_rendererNtB4_15MermaidRenderer20mermaid_diagram_kind
FN:1065,_RNvMs_NtCsj01YzKchgFg_8mdmdview16mermaid_rendererNtB4_15MermaidRenderer20mermaid_theme_values
FN:965,_RNvMs_NtCsj01YzKchgFg_8mdmdview16mermaid_rendererNtB4_15MermaidRenderer20mermaid_worker_count
FN:900,_RNvMs_NtCsj01YzKchgFg_8mdmdview16mermaid_rendererNtB4_15MermaidRenderer20poll_mermaid_results
FN:1034,_RNvMs_NtCsj01YzKchgFg_8mdmdview16mermaid_rendererNtB4_15MermaidRenderer21spawn_mermaid_workers
FN:1058,_RNvMs_NtCsj01YzKchgFg_8mdmdview16mermaid_rendererNtB4_15MermaidRenderer21store_mermaid_texture
FN:1137,_RNvMs_NtCsj01YzKchgFg_8mdmdview16mermaid_rendererNtB4_15MermaidRenderer22mermaid_security_level
FN:1148,_RNvMs_NtCsj01YzKchgFg_8mdmdview16mermaid_rendererNtB4_15MermaidRenderer24mermaid_site_config_json
FN:533,_RNvMs_NtCsj01YzKchgFg_8mdmdview16mermaid_rendererNtB4_15MermaidRenderer26default_mermaid_preference
FN:544,_RNvMs_NtCsj01YzKchgFg_8mdmdview16mermaid_rendererNtB4_15MermaidRenderer27mermaid_renderer_preference
FN:988,_RNvMs_NtCsj01YzKchgFg_8mdmdview16mermaid_rendererNtB4_15MermaidRenderer27spawn_mermaid_worker_thread
FN:498,_RNvMs_NtCsj01YzKchgFg_8mdmdview16mermaid_rendererNtB4_15MermaidRenderer3new
FN:1278,_RNvMs_NtCsj01YzKchgFg_8mdmdview16mermaid_rendererNtB4_15MermaidRenderer8hash_str
FN:71,_RNvNtCsj01YzKchgFg_8mdmdview16mermaid_renderer16mermaid_js_empty
FN:121,_RNvNtCsj01YzKchgFg_8mdmdview16mermaid_renderer17take_mermaid_flag
FN:265,_RNvNtCsj01YzKchgFg_8mdmdview16mermaid_renderer19call_mermaid_render
FN:244,_RNvNtCsj01YzKchgFg_8mdmdview16mermaid_renderer19face_parse_for_test
FN:283,_RNvNtCsj01YzKchgFg_8mdmdview16mermaid_renderer19pixmap_new_for_test
FN:253,_RNvNtCsj01YzKchgFg_8mdmdview16mermaid_renderer20eval_mermaid_wrapper
FN:213,_RNvNtCsj01YzKchgFg_8mdmdview16mermaid_renderer20runtime_new_for_test
FN:222,_RNvNtCsj01YzKchgFg_8mdmdview16mermaid_renderer21context_full_for_test
FN:231,_RNvNtCsj01YzKchgFg_8mdmdview16mermaid_renderer23mermaid_js_str_for_test
FN:113,_RNvNtCsj01YzKchgFg_8mdmdview16mermaid_renderer29force_mermaid_init_error_once
FN:149,_RNvNtCsj01YzKchgFg_8mdmdview16mermaid_renderer29force_mermaid_utf8_error_once
FN:84,_RNvNtCsj01YzKchgFg_8mdmdview16mermaid_renderer29set_mermaid_js_empty_for_test
FN:141,_RNvNtCsj01YzKchgFg_8mdmdview16mermaid_renderer32force_mermaid_context_error_once
FN:133,_RNvNtCsj01YzKchgFg_8mdmdview16mermaid_renderer32force_mermaid_runtime_error_once
FN:98,_RNvNtCsj01YzKchgFg_8mdmdview16mermaid_renderer34force_raw_tree_parse_fail_for_test
FN:181,_RNvNtCsj01YzKchgFg_8mdmdview16mermaid_renderer35force_mermaid_face_parse_error_once
FN:173,_RNvNtCsj01YzKchgFg_8mdmdview16mermaid_renderer36force_mermaid_pixmap_alloc_fail_once
FN:165,_RNvNtCsj01YzKchgFg_8mdmdview16mermaid_renderer36force_mermaid_render_call_error_once
FN:157,_RNvNtCsj01YzKchgFg_8mdmdview16mermaid_renderer36force_mermaid_render_eval_error_once
FN:103,_RNvNtCsj01YzKchgFg_8mdmdview16mermaid_renderer36force_mermaid_worker_init_error_once
FN:108,_RNvNtCsj01YzKchgFg_8mdmdview16mermaid_renderer37force_mermaid_thread_spawn_error_once
FN:189,_RINvNtCsj01YzKchgFg_8mdmdview16mermaid_renderer30maybe_force_mermaid_init_errorNtNtNtCsjEgTpwca4xw_13rquickjs_core5value8function8FunctionEB4_
FN:189,_RINvNtCsj01YzKchgFg_8mdmdview16mermaid_renderer30maybe_force_mermaid_init_erroruEB4_
FN:1635,_RNCNCNCNvMs2_NtCsj01YzKchgFg_8mdmdview16mermaid_rendererNtBb_13MermaidWorker3news2_000Bd_
FN:1656,_RNCNCNCNvMs2_NtCsj01YzKchgFg_8mdmdview16mermaid_rendererNtBb_13MermaidWorker3news2_0s1_00Bd_
FN:1382,_RNCNCNvMs1_NtCsj01YzKchgFg_8mdmdview16mermaid_rendererNtB9_12TextMeasurer17measure_with_face00Bb_
FN:1409,_RNCNCNvMs1_NtCsj01YzKchgFg_8mdmdview16mermaid_rendererNtB9_12TextMeasurer17measure_with_face0s_0Bb_
FN:1702,_RNCNCNvMs2_NtCsj01YzKchgFg_8mdmdview16mermaid_rendererNtB9_13MermaidWorker10render_svg00Bb_
FN:1718,_RNCNCNvMs2_NtCsj01YzKchgFg_8mdmdview16mermaid_rendererNtB9_13MermaidWorker10render_svg0s0_0Bb_
FN:1715,_RNCNCNvMs2_NtCsj01YzKchgFg_8mdmdview16mermaid_rendererNtB9_13MermaidWorker10render_svg0s_0Bb_
FN:1634,_RNCNCNvMs2_NtCsj01YzKchgFg_8mdmdview16mermaid_rendererNtB9_13MermaidWorker3news2_00Bb_
FN:1648,_RNCNCNvMs2_NtCsj01YzKchgFg_8mdmdview16mermaid_rendererNtB9_13MermaidWorker3news2_0s0_0Bb_
FN:1654,_RNCNCNvMs2_NtCsj01YzKchgFg_8mdmdview16mermaid_rendererNtB9_13MermaidWorker3news2_0s1_0Bb_
FN:1641,_RNCNCNvMs2_NtCsj01YzKchgFg_8mdmdview16mermaid_rendererNtB9_13MermaidWorker3news2_0s_0Bb_
FN:1004,_RNCNCNvMs_NtCsj01YzKchgFg_8mdmdview16mermaid_rendererNtB8_15MermaidRenderer27spawn_mermaid_worker_thread00Ba_
FN:387,_RNCNvMNtCsj01YzKchgFg_8mdmdview16mermaid_rendererINtB4_8LruCacheNtNtCs98nLQ3gaCym_5alloc6string6StringB10_E5touch0B6_
FN:361,_RNCNvMNtCsj01YzKchgFg_8mdmdview16mermaid_rendererINtB4_8LruCacheNtNtCs98nLQ3gaCym_5alloc6string6StringB10_E6remove0B6_
FN:387,_RNCNvMNtCsj01YzKchgFg_8mdmdview16mermaid_rendererINtB4_8LruCacheNtNtCs98nLQ3gaCym_5alloc6string6StringNtB4_19MermaidTextureEntryE5touch0B6_
FN:387,_RNCNvMNtCsj01YzKchgFg_8mdmdview16mermaid_rendererINtB4_8LruCacheNtNtCs98nLQ3gaCym_5alloc6string6StringlE5touch0B6_
FN:387,_RNCNvMNtCsj01YzKchgFg_8mdmdview16mermaid_rendererINtB4_8LruCachehNtNtCs98nLQ3gaCym_5alloc6string6StringE5touch0B6_
FN:387,_RNCNvMNtCsj01YzKchgFg_8mdmdview16mermaid_rendererINtB4_8LruCacheyNtNtCs98nLQ3gaCym_5alloc6string6StringE5touch0B6_
FN:361,_RNCNvMNtCsj01YzKchgFg_8mdmdview16mermaid_rendererINtB4_8LruCacheyNtNtCs98nLQ3gaCym_5alloc6string6StringE6remove0B6_
FN:1374,_RNCNvMs1_NtCsj01YzKchgFg_8mdmdview16mermaid_rendererNtB7_12TextMeasurer17measure_with_face0B9_
FN:1699,_RNCNvMs2_NtCsj01YzKchgFg_8mdmdview16mermaid_rendererNtB7_13MermaidWorker10render_svg0B9_
FN:2402,_RNCNvMs2_NtCsj01YzKchgFg_8mdmdview16mermaid_rendererNtB7_13MermaidWorker13rasterize_svg0B9_
FN:2408,_RNCNvMs2_NtCsj01YzKchgFg_8mdmdview16mermaid_rendererNtB7_13MermaidWorker13rasterize_svgs0_0B9_
FN:2502,_RNCNvMs2_NtCsj01YzKchgFg_8mdmdview16mermaid_rendererNtB7_13MermaidWorker13rasterize_svgs1_0B9_
FN:2407,_RNCNvMs2_NtCsj01YzKchgFg_8mdmdview16mermaid_rendererNtB7_13MermaidWorker13rasterize_svgs_0B9_
FN:1757,_RNCNvMs2_NtCsj01YzKchgFg_8mdmdview16mermaid_rendererNtB7_13MermaidWorker14maybe_dump_svg0B9_
FN:1567,_RNCNvMs2_NtCsj01YzKchgFg_8mdmdview16mermaid_rendererNtB7_13MermaidWorker15format_js_error0B9_
FN:1582,_RNCNvMs2_NtCsj01YzKchgFg_8mdmdview16mermaid_rendererNtB7_13MermaidWorker15format_js_errors0_0B9_
FN:1568,_RNCNvMs2_NtCsj01YzKchgFg_8mdmdview16mermaid_rendererNtB7_13MermaidWorker15format_js_errors_0B9_
FN:1788,_RNCNvMs2_NtCsj01YzKchgFg_8mdmdview16mermaid_rendererNtB7_13MermaidWorker16maybe_dump_error0B9_
FN:1841,_RNCNvMs2_NtCsj01YzKchgFg_8mdmdview16mermaid_rendererNtB7_13MermaidWorker18normalize_svg_size0B9_
FN:1854,_RNCNvMs2_NtCsj01YzKchgFg_8mdmdview16mermaid_rendererNtB7_13MermaidWorker18normalize_svg_sizes_0B9_
FN:2365,_RNCNvMs2_NtCsj01YzKchgFg_8mdmdview16mermaid_rendererNtB7_13MermaidWorker18parse_raw_svg_tree0B9_
FN:2256,_RNCNvMs2_NtCsj01YzKchgFg_8mdmdview16mermaid_rendererNtB7_13MermaidWorker18parse_viewbox_dims0B9_
FN:2257,_RNCNvMs2_NtCsj01YzKchgFg_8mdmdview16mermaid_rendererNtB7_13MermaidWorker18parse_viewbox_dimss_0B9_
FN:1609,_RNCNvMs2_NtCsj01YzKchgFg_8mdmdview16mermaid_rendererNtB7_13MermaidWorker3new0B9_
FN:1622,_RNCNvMs2_NtCsj01YzKchgFg_8mdmdview16mermaid_rendererNtB7_13MermaidWorker3news0_0B9_
FN:1626,_RNCNvMs2_NtCsj01YzKchgFg_8mdmdview16mermaid_rendererNtB7_13MermaidWorker3news1_0B9_
FN:1628,_RNCNvMs2_NtCsj01YzKchgFg_8mdmdview16mermaid_rendererNtB7_13MermaidWorker3news2_0B9_
FN:1614,_RNCNvMs2_NtCsj01YzKchgFg_8mdmdview16mermaid_rendererNtB7_13MermaidWorker3news_0B9_
FN:592,_RNCNvMs_NtCsj01YzKchgFg_8mdmdview16mermaid_rendererNtB6_15MermaidRenderer12render_block0B8_
FN:684,_RNCNvMs_NtCsj01YzKchgFg_8mdmdview16mermaid_rendererNtB6_15MermaidRenderer12render_blocks0_0B8_
FN:720,_RNCNvMs_NtCsj01YzKchgFg_8mdmdview16mermaid_rendererNtB6_15MermaidRenderer12render_blocks1_0B8_
FN:785,_RNCNvMs_NtCsj01YzKchgFg_8mdmdview16mermaid_rendererNtB6_15MermaidRenderer12render_blocks2_0B8_
FN:811,_RNCNvMs_NtCsj01YzKchgFg_8mdmdview16mermaid_rendererNtB6_15MermaidRenderer12render_blocks3_0B8_
FN:645,_RNCNvMs_NtCsj01YzKchgFg_8mdmdview16mermaid_rendererNtB6_15MermaidRenderer12render_blocks_0B8_
FN:1242,_RNCNvMs_NtCsj01YzKchgFg_8mdmdview16mermaid_rendererNtB6_15MermaidRenderer15mermaid_bg_fill0B8_
FN:1249,_RNCNvMs_NtCsj01YzKchgFg_8mdmdview16mermaid_rendererNtB6_15MermaidRenderer15mermaid_bg_fills_0B8_
FN:866,_RNCNvMs_NtCsj01YzKchgFg_8mdmdview16mermaid_rendererNtB6_15MermaidRenderer20mermaid_diagram_kind0B8_
FN:1082,_RNCNvMs_NtCsj01YzKchgFg_8mdmdview16mermaid_rendererNtB6_15MermaidRenderer20mermaid_theme_values0B8_
FN:1086,_RNCNvMs_NtCsj01YzKchgFg_8mdmdview16mermaid_rendererNtB6_15MermaidRenderer20mermaid_theme_valuess0_0B8_
FN:1088,_RNCNvMs_NtCsj01YzKchgFg_8mdmdview16mermaid_rendererNtB6_15MermaidRenderer20mermaid_theme_valuess1_0B8_
FN:1090,_RNCNvMs_NtCsj01YzKchgFg_8mdmdview16mermaid_rendererNtB6_15MermaidRenderer20mermaid_theme_valuess2_0B8_
FN:1092,_RNCNvMs_NtCsj01YzKchgFg_8mdmdview16mermaid_rendererNtB6_15MermaidRenderer20mermaid_theme_valuess3_0B8_
FN:1094,_RNCNvMs_NtCsj01YzKchgFg_8mdmdview16mermaid_rendererNtB6_15MermaidRenderer20mermaid_theme_valuess4_0B8_
FN:1096,_RNCNvMs_NtCsj01YzKchgFg_8mdmdview16mermaid_rendererNtB6_15MermaidRenderer20mermaid_theme_valuess5_0B8_
FN:1098,_RNCNvMs_NtCsj01YzKchgFg_8mdmdview16mermaid_rendererNtB6_15MermaidRenderer20mermaid_theme_valuess6_0B8_
FN:1100,_RNCNvMs_NtCsj01YzKchgFg_8mdmdview16mermaid_rendererNtB6_15MermaidRenderer20mermaid_theme_valuess7_0B8_
FN:1102,_RNCNvMs_NtCsj01YzKchgFg_8mdmdview16mermaid_rendererNtB6_15MermaidRenderer20mermaid_theme_valuess8_0B8_
FN:1104,_RNCNvMs_NtCsj01YzKchgFg_8mdmdview16mermaid_rendererNtB6_15MermaidRenderer20mermaid_theme_valuess9_0B8_
FN:1084,_RNCNvMs_NtCsj01YzKchgFg_8mdmdview16mermaid_rendererNtB6_15MermaidRenderer20mermaid_theme_valuess_0B8_
FN:1106,_RNCNvMs_NtCsj01YzKchgFg_8mdmdview16mermaid_rendererNtB6_15MermaidRenderer20mermaid_theme_valuessa_0B8_
FN:1108,_RNCNvMs_NtCsj01YzKchgFg_8mdmdview16mermaid_rendererNtB6_15MermaidRenderer20mermaid_theme_valuessb_0B8_
FN:1110,_RNCNvMs_NtCsj01YzKchgFg_8mdmdview16mermaid_rendererNtB6_15MermaidRenderer20mermaid_theme_valuessc_0B8_
FN:1113,_RNCNvMs_NtCsj01YzKchgFg_8mdmdview16mermaid_rendererNtB6_15MermaidRenderer20mermaid_theme_valuessd_0B8_
FN:1114,_RNCNvMs_NtCsj01YzKchgFg_8mdmdview16mermaid_rendererNtB6_15MermaidRenderer20mermaid_theme_valuesse_0B8_
FN:972,_RNCNvMs_NtCsj01YzKchgFg_8mdmdview16mermaid_rendererNtB6_15MermaidRenderer20mermaid_worker_count0B8_
FN:1003,_RNCNvMs_NtCsj01YzKchgFg_8mdmdview16mermaid_rendererNtB6_15MermaidRenderer27spawn_mermaid_worker_thread0B8_
FN:377,_RNvMNtCsj01YzKchgFg_8mdmdview16mermaid_rendererINtB2_8LruCacheNtNtCs98nLQ3gaCym_5alloc6string6StringBY_E12evict_oldestB4_
FN:370,_RNvMNtCsj01YzKchgFg_8mdmdview16mermaid_rendererINtB2_8LruCacheNtNtCs98nLQ3gaCym_5alloc6string6StringBY_E16touch_if_presentB4_
FN:336,_RNvMNtCsj01YzKchgFg_8mdmdview16mermaid_rendererINtB2_8LruCacheNtNtCs98nLQ3gaCym_5alloc6string6StringBY_E3getB4_
FN:365,_RNvMNtCsj01YzKchgFg_8mdmdview16mermaid_rendererINtB2_8LruCacheNtNtCs98nLQ3gaCym_5alloc6string6StringBY_E3lenB4_
FN:327,_RNvMNtCsj01YzKchgFg_8mdmdview16mermaid_rendererINtB2_8LruCacheNtNtCs98nLQ3gaCym_5alloc6string6StringBY_E3newB4_
FN:386,_RNvMNtCsj01YzKchgFg_8mdmdview16mermaid_rendererINtB2_8LruCacheNtNtCs98nLQ3gaCym_5alloc6string6StringBY_E5touchB4_
FN:343,_RNvMNtCsj01YzKchgFg_8mdmdview16mermaid_rendererINtB2_8LruCacheNtNtCs98nLQ3gaCym_5alloc6string6StringBY_E6insertB4_
FN:359,_RNvMNtCsj01YzKchgFg_8mdmdview16mermaid_rendererINtB2_8LruCacheNtNtCs98nLQ3gaCym_5alloc6string6StringBY_E6removeB4_
FN:377,_RNvMNtCsj01YzKchgFg_8mdmdview16mermaid_rendererINtB2_8LruCacheNtNtCs98nLQ3gaCym_5alloc6string6StringNtB2_19MermaidTextureEntryE12evict_oldestB4_
FN:370,_RNvMNtCsj01YzKchgFg_8mdmdview16mermaid_rendererINtB2_8LruCacheNtNtCs98nLQ3gaCym_5alloc6string6StringNtB2_19MermaidTextureEntryE16touch_if_presentB4_
FN:336,_RNvMNtCsj01YzKchgFg_8mdmdview16mermaid_rendererINtB2_8LruCacheNtNtCs98nLQ3gaCym_5alloc6string6StringNtB2_19MermaidTextureEntryE3getB4_
FN:327,_RNvMNtCsj01YzKchgFg_8mdmdview16mermaid_rendererINtB2_8LruCacheNtNtCs98nLQ3gaCym_5alloc6string6StringNtB2_19MermaidTextureEntryE3newB4_
FN:386,_RNvMNtCsj01YzKchgFg_8mdmdview16mermaid_rendererINtB2_8LruCacheNtNtCs98nLQ3gaCym_5alloc6string6StringNtB2_19MermaidTextureEntryE5touchB4_
FN:343,_RNvMNtCsj01YzKchgFg_8mdmdview16mermaid_rendererINtB2_8LruCacheNtNtCs98nLQ3gaCym_5alloc6string6StringNtB2_19MermaidTextureEntryE6insertB4_
FN:377,_RNvMNtCsj01YzKchgFg_8mdmdview16mermaid_rendererINtB2_8LruCacheNtNtCs98nLQ3gaCym_5alloc6string6StringlE12evict_oldestB4_
FN:370,_RNvMNtCsj01YzKchgFg_8mdmdview16mermaid_rendererINtB2_8LruCacheNtNtCs98nLQ3gaCym_5alloc6string6StringlE16touch_if_presentB4_
FN:336,_RNvMNtCsj01YzKchgFg_8mdmdview16mermaid_rendererINtB2_8LruCacheNtNtCs98nLQ3gaCym_5alloc6string6StringlE3getB4_
FN:365,_RNvMNtCsj01YzKchgFg_8mdmdview16mermaid_rendererINtB2_8LruCacheNtNtCs98nLQ3gaCym_5alloc6string6StringlE3lenB4_
FN:327,_RNvMNtCsj01YzKchgFg_8mdmdview16mermaid_rendererINtB2_8LruCacheNtNtCs98nLQ3gaCym_5alloc6string6StringlE3newB4_
FN:386,_RNvMNtCsj01YzKchgFg_8mdmdview16mermaid_rendererINtB2_8LruCacheNtNtCs98nLQ3gaCym_5alloc6string6StringlE5touchB4_
FN:343,_RNvMNtCsj01YzKchgFg_8mdmdview16mermaid_rendererINtB2_8LruCacheNtNtCs98nLQ3gaCym_5alloc6string6StringlE6insertB4_
FN:377,_RNvMNtCsj01YzKchgFg_8mdmdview16mermaid_rendererINtB2_8LruCachehNtNtCs98nLQ3gaCym_5alloc6string6StringE12evict_oldestB4_
FN:370,_RNvMNtCsj01YzKchgFg_8mdmdview16mermaid_rendererINtB2_8LruCachehNtNtCs98nLQ3gaCym_5alloc6string6StringE16touch_if_presentB4_
FN:336,_RNvMNtCsj01YzKchgFg_8mdmdview16mermaid_rendererINtB2_8LruCachehNtNtCs98nLQ3gaCym_5alloc6string6StringE3getB4_
FN:365,_RNvMNtCsj01YzKchgFg_8mdmdview16mermaid_rendererINtB2_8LruCachehNtNtCs98nLQ3gaCym_5alloc6string6StringE3lenB4_
FN:327,_RNvMNtCsj01YzKchgFg_8mdmdview16mermaid_rendererINtB2_8LruCachehNtNtCs98nLQ3gaCym_5alloc6string6StringE3newB4_
FN:386,_RNvMNtCsj01YzKchgFg_8mdmdview16mermaid_rendererINtB2_8LruCachehNtNtCs98nLQ3gaCym_5alloc6string6StringE5touchB4_
FN:343,_RNvMNtCsj01YzKchgFg_8mdmdview16mermaid_rendererINtB2_8LruCachehNtNtCs98nLQ3gaCym_5alloc6string6StringE6insertB4_
FN:377,_RNvMNtCsj01YzKchgFg_8mdmdview16mermaid_rendererINtB2_8LruCacheyNtNtCs98nLQ3gaCym_5alloc6string6StringE12evict_oldestB4_
FN:370,_RNvMNtCsj01YzKchgFg_8mdmdview16mermaid_rendererINtB2_8LruCacheyNtNtCs98nLQ3gaCym_5alloc6string6StringE16touch_if_presentB4_
FN:336,_RNvMNtCsj01YzKchgFg_8mdmdview16mermaid_rendererINtB2_8LruCacheyNtNtCs98nLQ3gaCym_5alloc6string6StringE3getB4_
FN:327,_RNvMNtCsj01YzKchgFg_8mdmdview16mermaid_rendererINtB2_8LruCacheyNtNtCs98nLQ3gaCym_5alloc6string6StringE3newB4_
FN:386,_RNvMNtCsj01YzKchgFg_8mdmdview16mermaid_rendererINtB2_8LruCacheyNtNtCs98nLQ3gaCym_5alloc6string6StringE5touchB4_
FN:343,_RNvMNtCsj01YzKchgFg_8mdmdview16mermaid_rendererINtB2_8LruCacheyNtNtCs98nLQ3gaCym_5alloc6string6StringE6insertB4_
FN:359,_RNvMNtCsj01YzKchgFg_8mdmdview16mermaid_rendererINtB2_8LruCacheyNtNtCs98nLQ3gaCym_5alloc6string6StringE6removeB4_
FN:1287,_RNvXs0_NtCsj01YzKchgFg_8mdmdview16mermaid_rendererNtB5_15MermaidRendererNtNtNtCs3mF4h8B4xym_4core3ops4drop4Drop4drop
FNDA:42,_RNvMs1_NtCsj01YzKchgFg_8mdmdview16mermaid_rendererNtB5_12TextMeasurer12measure_text
FNDA:3,_RNvMs1_NtCsj01YzKchgFg_8mdmdview16mermaid_rendererNtB5_12TextMeasurer16fallback_measure
FNDA:41,_RNvMs1_NtCsj01YzKchgFg_8mdmdview16mermaid_rendererNtB5_12TextMeasurer17measure_with_face
FNDA:1560,_RNvMs1_NtCsj01YzKchgFg_8mdmdview16mermaid_rendererNtB5_12TextMeasurer3new
FNDA:23,_RNvMs2_NtCsj01YzKchgFg_8mdmdview16mermaid_rendererNtB5_13MermaidWorker10format_dim
FNDA:12,_RNvMs2_NtCsj01YzKchgFg_8mdmdview16mermaid_rendererNtB5_13MermaidWorker10render_svg
FNDA:8,_RNvMs2_NtCsj01YzKchgFg_8mdmdview16mermaid_rendererNtB5_13MermaidWorker11process_job
FNDA:25,_RNvMs2_NtCsj01YzKchgFg_8mdmdview16mermaid_rendererNtB5_13MermaidWorker11upsert_attr
FNDA:15,_RNvMs2_NtCsj01YzKchgFg_8mdmdview16mermaid_rendererNtB5_13MermaidWorker12read_r_value
FNDA:29,_RNvMs2_NtCsj01YzKchgFg_8mdmdview16mermaid_rendererNtB5_13MermaidWorker12replace_attr
FNDA:40,_RNvMs2_NtCsj01YzKchgFg_8mdmdview16mermaid_rendererNtB5_13MermaidWorker13bbox_is_valid
FNDA:44,_RNvMs2_NtCsj01YzKchgFg_8mdmdview16mermaid_rendererNtB5_13MermaidWorker13find_svg_attr
FNDA:22,_RNvMs2_NtCsj01YzKchgFg_8mdmdview16mermaid_rendererNtB5_13MermaidWorker13rasterize_svg
FNDA:13,_RNvMs2_NtCsj01YzKchgFg_8mdmdview16mermaid_rendererNtB5_13MermaidWorker14maybe_dump_svg
FNDA:24,_RNvMs2_NtCsj01YzKchgFg_8mdmdview16mermaid_rendererNtB5_13MermaidWorker14strip_svg_attr
FNDA:18,_RNvMs2_NtCsj01YzKchgFg_8mdmdview16mermaid_rendererNtB5_13MermaidWorker15find_circle_tag
FNDA:26,_RNvMs2_NtCsj01YzKchgFg_8mdmdview16mermaid_rendererNtB5_13MermaidWorker15format_js_error
FNDA:6,_RNvMs2_NtCsj01YzKchgFg_8mdmdview16mermaid_rendererNtB5_13MermaidWorker15insert_svg_attr
FNDA:1555,_RNvMs2_NtCsj01YzKchgFg_8mdmdview16mermaid_rendererNtB5_13MermaidWorker15map_init_result
FNDA:27,_RNvMs2_NtCsj01YzKchgFg_8mdmdview16mermaid_rendererNtB5_13MermaidWorker15remove_svg_attr
FNDA:13,_RNvMs2_NtCsj01YzKchgFg_8mdmdview16mermaid_rendererNtB5_13MermaidWorker16maybe_dump_error
FNDA:1561,_RNvMs2_NtCsj01YzKchgFg_8mdmdview16mermaid_rendererNtB5_13MermaidWorker16patch_mermaid_js
FNDA:8,_RNvMs2_NtCsj01YzKchgFg_8mdmdview16mermaid_rendererNtB5_13MermaidWorker16replace_svg_attr
FNDA:11,_RNvMs2_NtCsj01YzKchgFg_8mdmdview16mermaid_rendererNtB5_13MermaidWorker18normalize_svg_size
FNDA:15,_RNvMs2_NtCsj01YzKchgFg_8mdmdview16mermaid_rendererNtB5_13MermaidWorker18parse_raw_svg_tree
FNDA:30,_RNvMs2_NtCsj01YzKchgFg_8mdmdview16mermaid_rendererNtB5_13MermaidWorker18parse_viewbox_dims
FNDA:16,_RNvMs2_NtCsj01YzKchgFg_8mdmdview16mermaid_rendererNtB5_13MermaidWorker18should_resize_bbox
FNDA:23,_RNvMs2_NtCsj01YzKchgFg_8mdmdview16mermaid_rendererNtB5_13MermaidWorker19image_href_resolver
FNDA:10,_RNvMs2_NtCsj01YzKchgFg_8mdmdview16mermaid_rendererNtB5_13MermaidWorker20flatten_svg_switches
FNDA:15,_RNvMs2_NtCsj01YzKchgFg_8mdmdview16mermaid_rendererNtB5_13MermaidWorker20format_render_result
FNDA:15,_RNvMs2_NtCsj01YzKchgFg_8mdmdview16mermaid_rendererNtB5_13MermaidWorker21fix_state_end_circles
FNDA:11,_RNvMs2_NtCsj01YzKchgFg_8mdmdview16mermaid_rendererNtB5_13MermaidWorker22fix_er_attribute_fills
FNDA:12,_RNvMs2_NtCsj01YzKchgFg_8mdmdview16mermaid_rendererNtB5_13MermaidWorker24fix_journey_section_text
FNDA:23,_RNvMs2_NtCsj01YzKchgFg_8mdmdview16mermaid_rendererNtB5_13MermaidWorker24scale_adjustment_for_svg
FNDA:1558,_RNvMs2_NtCsj01YzKchgFg_8mdmdview16mermaid_rendererNtB5_13MermaidWorker3new
FNDA:367,_RNvMs2_NtCsj01YzKchgFg_8mdmdview16mermaid_rendererNtB5_13MermaidWorker6now_ms
FNDA:24,_RNvMs_NtCsj01YzKchgFg_8mdmdview16mermaid_rendererNtB4_15MermaidRenderer11begin_frame
FNDA:13,_RNvMs_NtCsj01YzKchgFg_8mdmdview16mermaid_rendererNtB4_15MermaidRenderer11has_pending
FNDA:254,_RNvMs_NtCsj01YzKchgFg_8mdmdview16mermaid_rendererNtB4_15MermaidRenderer11json_escape
FNDA:18,_RNvMs_NtCsj01YzKchgFg_8mdmdview16mermaid_rendererNtB4_15MermaidRenderer11texture_key
FNDA:16,_RNvMs_NtCsj01YzKchgFg_8mdmdview16mermaid_rendererNtB4_15MermaidRenderer12render_block
FNDA:39,_RNvMs_NtCsj01YzKchgFg_8mdmdview16mermaid_rendererNtB4_15MermaidRenderer12scale_bucket
FNDA:18,_RNvMs_NtCsj01YzKchgFg_8mdmdview16mermaid_rendererNtB4_15MermaidRenderer12width_bucket
FNDA:20,_RNvMs_NtCsj01YzKchgFg_8mdmdview16mermaid_rendererNtB4_15MermaidRenderer14mermaid_bg_key
FNDA:24,_RNvMs_NtCsj01YzKchgFg_8mdmdview16mermaid_rendererNtB4_15MermaidRenderer15mermaid_bg_fill
FNDA:31,_RNvMs_NtCsj01YzKchgFg_8mdmdview16mermaid_rendererNtB4_15MermaidRenderer15parse_hex_color
FNDA:20,_RNvMs_NtCsj01YzKchgFg_8mdmdview16mermaid_rendererNtB4_15MermaidRenderer17scale_from_bucket
FNDA:15,_RNvMs_NtCsj01YzKchgFg_8mdmdview16mermaid_rendererNtB4_15MermaidRenderer18mermaid_timeout_ms
FNDA:10,_RNvMs_NtCsj01YzKchgFg_8mdmdview16mermaid_rendererNtB4_15MermaidRenderer19enqueue_mermaid_job
FNDA:15,_RNvMs_NtCsj01YzKchgFg_8mdmdview16mermaid_rendererNtB4_15MermaidRenderer20mermaid_diagram_kind
FNDA:21,_RNvMs_NtCsj01YzKchgFg_8mdmdview16mermaid_rendererNtB4_15MermaidRenderer20mermaid_theme_values
FNDA:386,_RNvMs_NtCsj01YzKchgFg_8mdmdview16mermaid_rendererNtB4_15MermaidRenderer20mermaid_worker_count
FNDA:18,_RNvMs_NtCsj01YzKchgFg_8mdmdview16mermaid_rendererNtB4_15MermaidRenderer20poll_mermaid_results
FNDA:383,_RNvMs_NtCsj01YzKchgFg_8mdmdview16mermaid_rendererNtB4_15MermaidRenderer21spawn_mermaid_workers
FNDA:1,_RNvMs_NtCsj01YzKchgFg_8mdmdview16mermaid_rendererNtB4_15MermaidRenderer21store_mermaid_texture
FNDA:17,_RNvMs_NtCsj01YzKchgFg_8mdmdview16mermaid_rendererNtB4_15MermaidRenderer22mermaid_security_level
FNDA:14,_RNvMs_NtCsj01YzKchgFg_8mdmdview16mermaid_rendererNtB4_15MermaidRenderer24mermaid_site_config_json
FNDA:6,_RNvMs_NtCsj01YzKchgFg_8mdmdview16mermaid_rendererNtB4_15MermaidRenderer26default_mermaid_preference
FNDA:20,_RNvMs_NtCsj01YzKchgFg_8mdmdview16mermaid_rendererNtB4_15MermaidRenderer27mermaid_renderer_preference
FNDA:1526,_RNvMs_NtCsj01YzKchgFg_8mdmdview16mermaid_rendererNtB4_15MermaidRenderer27spawn_mermaid_worker_thread
FNDA:381,_RNvMs_NtCsj01YzKchgFg_8mdmdview16mermaid_rendererNtB4_15MermaidRenderer3new
FNDA:25,_RNvMs_NtCsj01YzKchgFg_8mdmdview16mermaid_rendererNtB4_15MermaidRenderer8hash_str
FNDA:1578,_RNvNtCsj01YzKchgFg_8mdmdview16mermaid_renderer16mermaid_js_empty
FNDA:4749,_RNvNtCsj01YzKchgFg_8mdmdview16mermaid_renderer17take_mermaid_flag
FNDA:11,_RNvNtCsj01YzKchgFg_8mdmdview16mermaid_renderer19call_mermaid_render
FNDA:40,_RNvNtCsj01YzKchgFg_8mdmdview16mermaid_renderer19face_parse_for_test
FNDA:20,_RNvNtCsj01YzKchgFg_8mdmdview16mermaid_renderer19pixmap_new_for_test
FNDA:12,_RNvNtCsj01YzKchgFg_8mdmdview16mermaid_renderer20eval_mermaid_wrapper
FNDA:1557,_RNvNtCsj01YzKchgFg_8mdmdview16mermaid_renderer20runtime_new_for_test
FNDA:1555,_RNvNtCsj01YzKchgFg_8mdmdview16mermaid_renderer21context_full_for_test
FNDA:1554,_RNvNtCsj01YzKchgFg_8mdmdview16mermaid_renderer23mermaid_js_str_for_test
FNDA:5,_RNvNtCsj01YzKchgFg_8mdmdview16mermaid_renderer29force_mermaid_init_error_once
FNDA:1,_RNvNtCsj01YzKchgFg_8mdmdview16mermaid_renderer29force_mermaid_utf8_error_once
FNDA:7,_RNvNtCsj01YzKchgFg_8mdmdview16mermaid_renderer29set_mermaid_js_empty_for_test
FNDA:1,_RNvNtCsj01YzKchgFg_8mdmdview16mermaid_renderer32force_mermaid_context_error_once
FNDA:2,_RNvNtCsj01YzKchgFg_8mdmdview16mermaid_renderer32force_mermaid_runtime_error_once
FNDA:1,_RNvNtCsj01YzKchgFg_8mdmdview16mermaid_renderer34force_raw_tree_parse_fail_for_test
FNDA:1,_RNvNtCsj01YzKchgFg_8mdmdview16mermaid_renderer35force_mermaid_face_parse_error_once
FNDA:1,_RNvNtCsj01YzKchgFg_8mdmdview16mermaid_renderer36force_mermaid_pixmap_alloc_fail_once
FNDA:1,_RNvNtCsj01YzKchgFg_8mdmdview16mermaid_renderer36force_mermaid_render_call_error_once
FNDA:1,_RNvNtCsj01YzKchgFg_8mdmdview16mermaid_renderer36force_mermaid_render_eval_error_once
FNDA:1,_RNvNtCsj01YzKchgFg_8mdmdview16mermaid_renderer36force_mermaid_worker_init_error_once
FNDA:1,_RNvNtCsj01YzKchgFg_8mdmdview16mermaid_renderer37force_mermaid_thread_spawn_error_once
FNDA:1553,_RINvNtCsj01YzKchgFg_8mdmdview16mermaid_renderer30maybe_force_mermaid_init_errorNtNtNtCsjEgTpwca4xw_13rquickjs_core5value8function8FunctionEB4_
FNDA:6202,_RINvNtCsj01YzKchgFg_8mdmdview16mermaid_renderer30maybe_force_mermaid_init_erroruEB4_
FNDA:32,_RNCNCNCNvMs2_NtCsj01YzKchgFg_8mdmdview16mermaid_rendererNtBb_13MermaidWorker3news2_000Bd_
FNDA:3,_RNCNCNCNvMs2_NtCsj01YzKchgFg_8mdmdview16mermaid_rendererNtBb_13MermaidWorker3news2_0s1_00Bd_
FNDA:39,_RNCNCNvMs1_NtCsj01YzKchgFg_8mdmdview16mermaid_rendererNtB9_12TextMeasurer17measure_with_face00Bb_
FNDA:159,_RNCNCNvMs1_NtCsj01YzKchgFg_8mdmdview16mermaid_rendererNtB9_12TextMeasurer17measure_with_face0s_0Bb_
FNDA:1,_RNCNCNvMs2_NtCsj01YzKchgFg_8mdmdview16mermaid_rendererNtB9_13MermaidWorker10render_svg00Bb_
FNDA:2,_RNCNCNvMs2_NtCsj01YzKchgFg_8mdmdview16mermaid_rendererNtB9_13MermaidWorker10render_svg0s0_0Bb_
FNDA:1,_RNCNCNvMs2_NtCsj01YzKchgFg_8mdmdview16mermaid_rendererNtB9_13MermaidWorker10render_svg0s_0Bb_
FNDA:33,_RNCNCNvMs2_NtCsj01YzKchgFg_8mdmdview16mermaid_rendererNtB9_13MermaidWorker3news2_00Bb_
FNDA:1,_RNCNCNvMs2_NtCsj01YzKchgFg_8mdmdview16mermaid_rendererNtB9_13MermaidWorker3news2_0s0_0Bb_
FNDA:4650,_RNCNCNvMs2_NtCsj01YzKchgFg_8mdmdview16mermaid_rendererNtB9_13MermaidWorker3news2_0s1_0Bb_
FNDA:1,_RNCNCNvMs2_NtCsj01YzKchgFg_8mdmdview16mermaid_rendererNtB9_13MermaidWorker3news2_0s_0Bb_
FNDA:1,_RNCNCNvMs_NtCsj01YzKchgFg_8mdmdview16mermaid_rendererNtB8_15MermaidRenderer27spawn_mermaid_worker_thread00Ba_
FNDA:6,_RNCNvMNtCsj01YzKchgFg_8mdmdview16mermaid_rendererINtB4_8LruCacheNtNtCs98nLQ3gaCym_5alloc6string6StringB10_E5touch0B6_
FNDA:2,_RNCNvMNtCsj01YzKchgFg_8mdmdview16mermaid_rendererINtB4_8LruCacheNtNtCs98nLQ3gaCym_5alloc6string6StringB10_E6remove0B6_
FNDA:7,_RNCNvMNtCsj01YzKchgFg_8mdmdview16mermaid_rendererINtB4_8LruCacheNtNtCs98nLQ3gaCym_5alloc6string6StringNtB4_19MermaidTextureEntryE5touch0B6_
FNDA:5,_RNCNvMNtCsj01YzKchgFg_8mdmdview16mermaid_rendererINtB4_8LruCacheNtNtCs98nLQ3gaCym_5alloc6string6StringlE5touch0B6_
FNDA:2,_RNCNvMNtCsj01YzKchgFg_8mdmdview16mermaid_rendererINtB4_8LruCachehNtNtCs98nLQ3gaCym_5alloc6string6StringE5touch0B6_
FNDA:11,_RNCNvMNtCsj01YzKchgFg_8mdmdview16mermaid_rendererINtB4_8LruCacheyNtNtCs98nLQ3gaCym_5alloc6string6StringE5touch0B6_
FNDA:1,_RNCNvMNtCsj01YzKchgFg_8mdmdview16mermaid_rendererINtB4_8LruCacheyNtNtCs98nLQ3gaCym_5alloc6string6StringE6remove0B6_
FNDA:40,_RNCNvMs1_NtCsj01YzKchgFg_8mdmdview16mermaid_rendererNtB7_12TextMeasurer17measure_with_face0B9_
FNDA:12,_RNCNvMs2_NtCsj01YzKchgFg_8mdmdview16mermaid_rendererNtB7_13MermaidWorker10render_svg0B9_
FNDA:2,_RNCNvMs2_NtCsj01YzKchgFg_8mdmdview16mermaid_rendererNtB7_13MermaidWorker13rasterize_svg0B9_
FNDA:13,_RNCNvMs2_NtCsj01YzKchgFg_8mdmdview16mermaid_rendererNtB7_13MermaidWorker13rasterize_svgs0_0B9_
FNDA:1,_RNCNvMs2_NtCsj01YzKchgFg_8mdmdview16mermaid_rendererNtB7_13MermaidWorker13rasterize_svgs1_0B9_
FNDA:14,_RNCNvMs2_NtCsj01YzKchgFg_8mdmdview16mermaid_rendererNtB7_13MermaidWorker13rasterize_svgs_0B9_
FNDA:5,_RNCNvMs2_NtCsj01YzKchgFg_8mdmdview16mermaid_rendererNtB7_13MermaidWorker14maybe_dump_svg0B9_
FNDA:10,_RNCNvMs2_NtCsj01YzKchgFg_8mdmdview16mermaid_rendererNtB7_13MermaidWorker15format_js_error0B9_
FNDA:1,_RNCNvMs2_NtCsj01YzKchgFg_8mdmdview16mermaid_rendererNtB7_13MermaidWorker15format_js_errors0_0B9_
FNDA:10,_RNCNvMs2_NtCsj01YzKchgFg_8mdmdview16mermaid_rendererNtB7_13MermaidWorker15format_js_errors_0B9_
FNDA:6,_RNCNvMs2_NtCsj01YzKchgFg_8mdmdview16mermaid_rendererNtB7_13MermaidWorker16maybe_dump_error0B9_
FNDA:6,_RNCNvMs2_NtCsj01YzKchgFg_8mdmdview16mermaid_rendererNtB7_13MermaidWorker18normalize_svg_size0B9_
FNDA:4,_RNCNvMs2_NtCsj01YzKchgFg_8mdmdview16mermaid_rendererNtB7_13MermaidWorker18normalize_svg_sizes_0B9_
FNDA:1,_RNCNvMs2_NtCsj01YzKchgFg_8mdmdview16mermaid_rendererNtB7_13MermaidWorker18parse_raw_svg_tree0B9_
FNDA:395,_RNCNvMs2_NtCsj01YzKchgFg_8mdmdview16mermaid_rendererNtB7_13MermaidWorker18parse_viewbox_dims0B9_
FNDA:114,_RNCNvMs2_NtCsj01YzKchgFg_8mdmdview16mermaid_rendererNtB7_13MermaidWorker18parse_viewbox_dimss_0B9_
FNDA:1,_RNCNvMs2_NtCsj01YzKchgFg_8mdmdview16mermaid_rendererNtB7_13MermaidWorker3new0B9_
FNDA:1,_RNCNvMs2_NtCsj01YzKchgFg_8mdmdview16mermaid_rendererNtB7_13MermaidWorker3news0_0B9_
FNDA:1,_RNCNvMs2_NtCsj01YzKchgFg_8mdmdview16mermaid_rendererNtB7_13MermaidWorker3news1_0B9_
FNDA:1553,_RNCNvMs2_NtCsj01YzKchgFg_8mdmdview16mermaid_rendererNtB7_13MermaidWorker3news2_0B9_
FNDA:45290,_RNCNvMs2_NtCsj01YzKchgFg_8mdmdview16mermaid_rendererNtB7_13MermaidWorker3news_0B9_
FNDA:2,_RNCNvMs_NtCsj01YzKchgFg_8mdmdview16mermaid_rendererNtB6_15MermaidRenderer12render_block0B8_
FNDA:13,_RNCNvMs_NtCsj01YzKchgFg_8mdmdview16mermaid_rendererNtB6_15MermaidRenderer12render_blocks0_0B8_
FNDA:1,_RNCNvMs_NtCsj01YzKchgFg_8mdmdview16mermaid_rendererNtB6_15MermaidRenderer12render_blocks1_0B8_
FNDA:1,_RNCNvMs_NtCsj01YzKchgFg_8mdmdview16mermaid_rendererNtB6_15MermaidRenderer12render_blocks2_0B8_
FNDA:9,_RNCNvMs_NtCsj01YzKchgFg_8mdmdview16mermaid_rendererNtB6_15MermaidRenderer12render_blocks3_0B8_
FNDA:1,_RNCNvMs_NtCsj01YzKchgFg_8mdmdview16mermaid_rendererNtB6_15MermaidRenderer12render_blocks_0B8_
FNDA:16,_RNCNvMs_NtCsj01YzKchgFg_8mdmdview16mermaid_rendererNtB6_15MermaidRenderer15mermaid_bg_fill0B8_
FNDA:16,_RNCNvMs_NtCsj01YzKchgFg_8mdmdview16mermaid_rendererNtB6_15MermaidRenderer15mermaid_bg_fills_0B8_
FNDA:12,_RNCNvMs_NtCsj01YzKchgFg_8mdmdview16mermaid_rendererNtB6_15MermaidRenderer20mermaid_diagram_kind0B8_
FNDA:21,_RNCNvMs_NtCsj01YzKchgFg_8mdmdview16mermaid_rendererNtB6_15MermaidRenderer20mermaid_theme_values0B8_
FNDA:21,_RNCNvMs_NtCsj01YzKchgFg_8mdmdview16mermaid_rendererNtB6_15MermaidRenderer20mermaid_theme_valuess0_0B8_
FNDA:21,_RNCNvMs_NtCsj01YzKchgFg_8mdmdview16mermaid_rendererNtB6_15MermaidRenderer20mermaid_theme_valuess1_0B8_
FNDA:21,_RNCNvMs_NtCsj01YzKchgFg_8mdmdview16mermaid_rendererNtB6_15MermaidRenderer20mermaid_theme_valuess2_0B8_
FNDA:21,_RNCNvMs_NtCsj01YzKchgFg_8mdmdview16mermaid_rendererNtB6_15MermaidRenderer20mermaid_theme_valuess3_0B8_
FNDA:21,_RNCNvMs_NtCsj01YzKchgFg_8mdmdview16mermaid_rendererNtB6_15MermaidRenderer20mermaid_theme_valuess4_0B8_
FNDA:21,_RNCNvMs_NtCsj01YzKchgFg_8mdmdview16mermaid_rendererNtB6_15MermaidRenderer20mermaid_theme_valuess5_0B8_
FNDA:21,_RNCNvMs_NtCsj01YzKchgFg_8mdmdview16mermaid_rendererNtB6_15MermaidRenderer20mermaid_theme_valuess6_0B8_
FNDA:21,_RNCNvMs_NtCsj01YzKchgFg_8mdmdview16mermaid_rendererNtB6_15MermaidRenderer20mermaid_theme_valuess7_0B8_
FNDA:21,_RNCNvMs_NtCsj01YzKchgFg_8mdmdview16mermaid_rendererNtB6_15MermaidRenderer20mermaid_theme_valuess8_0B8_
FNDA:21,_RNCNvMs_NtCsj01YzKchgFg_8mdmdview16mermaid_rendererNtB6_15MermaidRenderer20mermaid_theme_valuess9_0B8_
FNDA:21,_RNCNvMs_NtCsj01YzKchgFg_8mdmdview16mermaid_rendererNtB6_15MermaidRenderer20mermaid_theme_valuess_0B8_
FNDA:21,_RNCNvMs_NtCsj01YzKchgFg_8mdmdview16mermaid_rendererNtB6_15MermaidRenderer20mermaid_theme_valuessa_0B8_
FNDA:21,_RNCNvMs_NtCsj01YzKchgFg_8mdmdview16mermaid_rendererNtB6_15MermaidRenderer20mermaid_theme_valuessb_0B8_
FNDA:21,_RNCNvMs_NtCsj01YzKchgFg_8mdmdview16mermaid_rendererNtB6_15MermaidRenderer20mermaid_theme_valuessc_0B8_
FNDA:3,_RNCNvMs_NtCsj01YzKchgFg_8mdmdview16mermaid_rendererNtB6_15MermaidRenderer20mermaid_theme_valuessd_0B8_
FNDA:3,_RNCNvMs_NtCsj01YzKchgFg_8mdmdview16mermaid_rendererNtB6_15MermaidRenderer20mermaid_theme_valuesse_0B8_
FNDA:382,_RNCNvMs_NtCsj01YzKchgFg_8mdmdview16mermaid_rendererNtB6_15MermaidRenderer20mermaid_worker_count0B8_
FNDA:1525,_RNCNvMs_NtCsj01YzKchgFg_8mdmdview16mermaid_rendererNtB6_15MermaidRenderer27spawn_mermaid_worker_thread0B8_
FNDA:6,_RNvMNtCsj01YzKchgFg_8mdmdview16mermaid_rendererINtB2_8LruCacheNtNtCs98nLQ3gaCym_5alloc6string6StringBY_E12evict_oldestB4_
FNDA:20,_RNvMNtCsj01YzKchgFg_8mdmdview16mermaid_rendererINtB2_8LruCacheNtNtCs98nLQ3gaCym_5alloc6string6StringBY_E16touch_if_presentB4_
FNDA:18,_RNvMNtCsj01YzKchgFg_8mdmdview16mermaid_rendererINtB2_8LruCacheNtNtCs98nLQ3gaCym_5alloc6string6StringBY_E3getB4_
FNDA:1,_RNvMNtCsj01YzKchgFg_8mdmdview16mermaid_rendererINtB2_8LruCacheNtNtCs98nLQ3gaCym_5alloc6string6StringBY_E3lenB4_
FNDA:393,_RNvMNtCsj01YzKchgFg_8mdmdview16mermaid_rendererINtB2_8LruCacheNtNtCs98nLQ3gaCym_5alloc6string6StringBY_E3newB4_
FNDA:6,_RNvMNtCsj01YzKchgFg_8mdmdview16mermaid_rendererINtB2_8LruCacheNtNtCs98nLQ3gaCym_5alloc6string6StringBY_E5touchB4_
FNDA:11,_RNvMNtCsj01YzKchgFg_8mdmdview16mermaid_rendererINtB2_8LruCacheNtNtCs98nLQ3gaCym_5alloc6string6StringBY_E6insertB4_
FNDA:1,_RNvMNtCsj01YzKchgFg_8mdmdview16mermaid_rendererINtB2_8LruCacheNtNtCs98nLQ3gaCym_5alloc6string6StringBY_E6removeB4_
FNDA:6,_RNvMNtCsj01YzKchgFg_8mdmdview16mermaid_rendererINtB2_8LruCacheNtNtCs98nLQ3gaCym_5alloc6string6StringNtB2_19MermaidTextureEntryE12evict_oldestB4_
FNDA:20,_RNvMNtCsj01YzKchgFg_8mdmdview16mermaid_rendererINtB2_8LruCacheNtNtCs98nLQ3gaCym_5alloc6string6StringNtB2_19MermaidTextureEntryE16touch_if_presentB4_
FNDA:18,_RNvMNtCsj01YzKchgFg_8mdmdview16mermaid_rendererINtB2_8LruCacheNtNtCs98nLQ3gaCym_5alloc6string6StringNtB2_19MermaidTextureEntryE3getB4_
FNDA:393,_RNvMNtCsj01YzKchgFg_8mdmdview16mermaid_rendererINtB2_8LruCacheNtNtCs98nLQ3gaCym_5alloc6string6StringNtB2_19MermaidTextureEntryE3newB4_
FNDA:8,_RNvMNtCsj01YzKchgFg_8mdmdview16mermaid_rendererINtB2_8LruCacheNtNtCs98nLQ3gaCym_5alloc6string6StringNtB2_19MermaidTextureEntryE5touchB4_
FNDA:12,_RNvMNtCsj01YzKchgFg_8mdmdview16mermaid_rendererINtB2_8LruCacheNtNtCs98nLQ3gaCym_5alloc6string6StringNtB2_19MermaidTextureEntryE6insertB4_
FNDA:4,_RNvMNtCsj01YzKchgFg_8mdmdview16mermaid_rendererINtB2_8LruCacheNtNtCs98nLQ3gaCym_5alloc6string6StringlE12evict_oldestB4_
FNDA:7,_RNvMNtCsj01YzKchgFg_8mdmdview16mermaid_rendererINtB2_8LruCacheNtNtCs98nLQ3gaCym_5alloc6string6StringlE16touch_if_presentB4_
FNDA:5,_RNvMNtCsj01YzKchgFg_8mdmdview16mermaid_rendererINtB2_8LruCacheNtNtCs98nLQ3gaCym_5alloc6string6StringlE3getB4_
FNDA:5,_RNvMNtCsj01YzKchgFg_8mdmdview16mermaid_rendererINtB2_8LruCacheNtNtCs98nLQ3gaCym_5alloc6string6StringlE3lenB4_
FNDA:8,_RNvMNtCsj01YzKchgFg_8mdmdview16mermaid_rendererINtB2_8LruCacheNtNtCs98nLQ3gaCym_5alloc6string6StringlE3newB4_
FNDA:4,_RNvMNtCsj01YzKchgFg_8mdmdview16mermaid_rendererINtB2_8LruCacheNtNtCs98nLQ3gaCym_5alloc6string6StringlE5touchB4_
FNDA:11,_RNvMNtCsj01YzKchgFg_8mdmdview16mermaid_rendererINtB2_8LruCacheNtNtCs98nLQ3gaCym_5alloc6string6StringlE6insertB4_
FNDA:2,_RNvMNtCsj01YzKchgFg_8mdmdview16mermaid_rendererINtB2_8LruCachehNtNtCs98nLQ3gaCym_5alloc6string6StringE12evict_oldestB4_
FNDA:3,_RNvMNtCsj01YzKchgFg_8mdmdview16mermaid_rendererINtB2_8LruCachehNtNtCs98nLQ3gaCym_5alloc6string6StringE16touch_if_presentB4_
FNDA:3,_RNvMNtCsj01YzKchgFg_8mdmdview16mermaid_rendererINtB2_8LruCachehNtNtCs98nLQ3gaCym_5alloc6string6StringE3getB4_
FNDA:1,_RNvMNtCsj01YzKchgFg_8mdmdview16mermaid_rendererINtB2_8LruCachehNtNtCs98nLQ3gaCym_5alloc6string6StringE3lenB4_
FNDA:1,_RNvMNtCsj01YzKchgFg_8mdmdview16mermaid_rendererINtB2_8LruCachehNtNtCs98nLQ3gaCym_5alloc6string6StringE3newB4_
FNDA:2,_RNvMNtCsj01YzKchgFg_8mdmdview16mermaid_rendererINtB2_8LruCachehNtNtCs98nLQ3gaCym_5alloc6string6StringE5touchB4_
FNDA:4,_RNvMNtCsj01YzKchgFg_8mdmdview16mermaid_rendererINtB2_8LruCachehNtNtCs98nLQ3gaCym_5alloc6string6StringE6insertB4_
FNDA:5,_RNvMNtCsj01YzKchgFg_8mdmdview16mermaid_rendererINtB2_8LruCacheyNtNtCs98nLQ3gaCym_5alloc6string6StringE12evict_oldestB4_
FNDA:32,_RNvMNtCsj01YzKchgFg_8mdmdview16mermaid_rendererINtB2_8LruCacheyNtNtCs98nLQ3gaCym_5alloc6string6StringE16touch_if_presentB4_
FNDA:30,_RNvMNtCsj01YzKchgFg_8mdmdview16mermaid_rendererINtB2_8LruCacheyNtNtCs98nLQ3gaCym_5alloc6string6StringE3getB4_
FNDA:783,_RNvMNtCsj01YzKchgFg_8mdmdview16mermaid_rendererINtB2_8LruCacheyNtNtCs98nLQ3gaCym_5alloc6string6StringE3newB4_
FNDA:10,_RNvMNtCsj01YzKchgFg_8mdmdview16mermaid_rendererINtB2_8LruCacheyNtNtCs98nLQ3gaCym_5alloc6string6StringE5touchB4_
FNDA:18,_RNvMNtCsj01YzKchgFg_8mdmdview16mermaid_rendererINtB2_8LruCacheyNtNtCs98nLQ3gaCym_5alloc6string6StringE6insertB4_
FNDA:3,_RNvMNtCsj01YzKchgFg_8mdmdview16mermaid_rendererINtB2_8LruCacheyNtNtCs98nLQ3gaCym_5alloc6string6StringE6removeB4_
FNDA:390,_RNvXs0_NtCsj01YzKchgFg_8mdmdview16mermaid_rendererNtB5_15MermaidRendererNtNtNtCs3mF4h8B4xym_4core3ops4drop4Drop4drop
FNF:156
FNH:156
DA:71,1578
DA:73,1578
DA:74,1577
DA:75,5
DA:76,3
DA:77,2
DA:78,1572
DA:79,1
DA:80,1575
DA:81,1578
DA:84,7
DA:85,7
DA:86,7
DA:87,7
DA:88,7
DA:89,7
DA:90,5
DA:92,2
DA:94,7
DA:95,7
DA:98,1
DA:99,1
DA:100,1
DA:103,1
DA:104,1
DA:105,1
DA:108,1
DA:109,1
DA:110,1
DA:113,5
DA:114,5
DA:115,5
DA:116,5
DA:117,5
DA:118,5
DA:121,4749
DA:122,4749
DA:123,4749
DA:124,9
DA:125,7
DA:126,2
DA:127,2
DA:128,4740
DA:129,4742
DA:130,4749
DA:133,2
DA:134,2
DA:135,2
DA:136,2
DA:137,2
DA:138,2
DA:141,1
DA:142,1
DA:143,1
DA:144,1
DA:145,1
DA:146,1
DA:149,1
DA:150,1
DA:151,1
DA:152,1
DA:153,1
DA:154,1
DA:157,1
DA:158,1
DA:159,1
DA:160,1
DA:161,1
DA:162,1
DA:165,1
DA:166,1
DA:167,1
DA:168,1
DA:169,1
DA:170,1
DA:173,1
DA:174,1
DA:175,1
DA:176,1
DA:177,1
DA:178,1
DA:181,1
DA:182,1
DA:183,1
DA:184,1
DA:185,1
DA:186,1
DA:189,7755
DA:190,7755
DA:191,7755
DA:192,7755
DA:193,7755
DA:194,7753
DA:195,121
DA:196,5
DA:197,116
DA:198,116
DA:199,7632
DA:200,2
DA:201,7750
DA:202,7755
DA:213,1557
DA:215,1557
DA:216,1
DA:217,1556
DA:218,1556
DA:219,1557
DA:222,1555
DA:224,1555
DA:225,1
DA:226,1554
DA:227,1554
DA:228,1555
DA:231,1554
DA:233,1554
DA:237,1
DA:239,1553
DA:240,1553
DA:241,1554
DA:244,40
DA:246,40
DA:247,1
DA:248,39
DA:249,39
DA:250,40
DA:253,12
DA:254,12
DA:255,12
DA:256,12
DA:258,12
DA:259,1
DA:260,11
DA:261,11
DA:262,12
DA:265,11
DA:266,11
DA:267,11
DA:268,11
DA:269,11
DA:270,11
DA:271,11
DA:272,11
DA:273,11
DA:274,11
DA:276,11
DA:277,1
DA:278,10
DA:279,10
DA:280,11
DA:283,20
DA:285,20
DA:286,1
DA:287,19
DA:288,19
DA:289,20
DA:327,1578
DA:328,1578
DA:329,1578
DA:330,1578
DA:331,1578
DA:332,1578
DA:333,1578
DA:336,74
DA:337,74
DA:338,74
DA:339,74
DA:340,74
DA:343,56
DA:344,56
DA:345,6
DA:346,6
DA:347,6
DA:348,50
DA:349,58
DA:350,15
DA:351,7
DA:352,8
DA:354,50
DA:355,50
DA:356,56
DA:359,4
DA:360,4
DA:361,4
DA:362,4
DA:365,7
DA:366,7
DA:367,7
DA:370,82
DA:371,82
DA:372,24
DA:373,58
DA:374,82
DA:377,23
DA:378,23
DA:379,12
DA:380,12
DA:382,11
DA:384,23
DA:386,30
DA:387,31
DA:388,30
DA:389,30
DA:498,381
DA:500,381
DA:501,381
DA:503,381
DA:504,381
DA:505,381
DA:506,381
DA:508,381
DA:509,381
DA:510,381
DA:511,381
DA:512,381
DA:513,381
DA:514,381
DA:515,381
DA:516,381
DA:517,381
DA:518,381
DA:519,381
DA:520,381
DA:521,381
DA:522,381
DA:523,381
DA:524,381
DA:525,381
DA:526,381
DA:527,381
DA:528,381
DA:529,381
DA:530,381
DA:531,381
DA:533,6
DA:536,6
DA:542,6
DA:544,20
DA:545,20
DA:546,15
DA:547,15
DA:548,15
DA:549,12
DA:550,1
DA:552,5
DA:553,5
DA:554,20
DA:556,13
DA:559,13
DA:565,13
DA:567,24
DA:569,24
DA:570,24
DA:572,16
DA:573,16
DA:574,16
DA:575,16
DA:576,16
DA:577,16
DA:578,16
DA:579,16
DA:587,16
DA:588,2
DA:589,2
DA:590,2
DA:591,2
DA:592,2
DA:593,2
DA:594,2
DA:597,2
DA:598,2
DA:599,2
DA:601,2
DA:602,2
DA:603,2
DA:604,2
DA:605,2
DA:606,2
DA:608,2
DA:609,2
DA:610,14
DA:640,14
DA:641,1
DA:642,1
DA:643,1
DA:644,1
DA:645,1
DA:646,1
DA:647,1
DA:650,1
DA:651,1
DA:652,1
DA:654,1
DA:655,1
DA:656,1
DA:657,1
DA:658,1
DA:659,1
DA:661,1
DA:662,1
DA:663,13
DA:664,13
DA:665,13
DA:666,13
DA:667,13
DA:668,4
DA:669,4
DA:670,3
DA:671,3
DA:672,9
DA:673,13
DA:674,2
DA:675,2
DA:676,2
DA:677,2
DA:678,11
DA:679,13
DA:680,13
DA:681,13
DA:682,13
DA:683,13
DA:684,13
DA:685,13
DA:686,13
DA:687,13
DA:688,11
DA:689,2
DA:690,2
DA:691,9
DA:692,2
DA:693,13
DA:694,13
DA:696,13
DA:697,1
DA:698,12
DA:700,13
DA:701,2
DA:702,2
DA:703,2
DA:704,1
DA:706,1
DA:708,2
DA:709,2
DA:710,2
DA:711,11
DA:713,11
DA:714,11
DA:715,11
DA:716,1
DA:717,1
DA:718,1
DA:719,1
DA:720,1
DA:721,1
DA:722,1
DA:723,1
DA:725,1
DA:726,1
DA:727,1
DA:728,1
DA:732,1
DA:733,1
DA:734,1
DA:736,1
DA:737,1
DA:738,1
DA:739,1
DA:740,1
DA:741,1
DA:743,1
DA:744,1
DA:745,10
DA:746,10
DA:747,10
DA:748,10
DA:750,10
DA:751,9
DA:752,1
DA:753,8
DA:755,9
DA:756,9
DA:757,9
DA:758,9
DA:759,9
DA:760,9
DA:761,9
DA:762,9
DA:763,9
DA:764,9
DA:765,9
DA:766,9
DA:767,7
DA:768,7
DA:769,7
DA:770,7
DA:771,7
DA:772,7
DA:773,1
DA:774,1
DA:775,1
DA:776,1
DA:778,1
DA:779,1
DA:780,1
DA:781,1
DA:782,1
DA:783,1
DA:784,1
DA:785,1
DA:786,1
DA:787,1
DA:788,1
DA:789,1
DA:790,1
DA:792,1
DA:793,1
DA:794,1
DA:795,1
DA:796,1
DA:797,1
DA:799,1
DA:800,1
DA:803,1
DA:805,9
DA:806,9
DA:807,9
DA:808,9
DA:809,9
DA:810,9
DA:811,9
DA:814,9
DA:815,9
DA:816,1
DA:817,1
DA:818,1
DA:819,1
DA:820,1
DA:821,1
DA:822,1
DA:823,1
DA:824,1
DA:825,1
DA:826,8
DA:827,8
DA:828,8
DA:829,8
DA:830,8
DA:831,8
DA:832,9
DA:833,9
DA:839,16
DA:842,18
DA:843,18
DA:844,18
DA:845,18
DA:846,18
DA:849,39
DA:850,39
DA:851,39
DA:852,39
DA:854,15
DA:855,20
DA:856,20
DA:857,20
DA:858,3
DA:859,17
DA:860,17
DA:861,5
DA:862,12
DA:863,12
DA:864,12
DA:865,12
DA:866,12
DA:868,3
DA:869,15
DA:872,20
DA:873,20
DA:874,20
DA:875,20
DA:878,20
DA:879,20
DA:880,19
DA:881,1
DA:883,20
DA:886,18
DA:887,18
DA:888,18
DA:889,18
DA:890,18
DA:891,18
DA:892,18
DA:893,18
DA:894,18
DA:897,18
DA:900,18
DA:901,18
DA:902,24
DA:904,6
DA:905,6
DA:906,6
DA:907,6
DA:908,6
DA:909,6
DA:910,6
DA:911,6
DA:912,6
DA:914,6
DA:915,3
DA:916,3
DA:917,3
DA:919,6
DA:920,2
DA:921,1
DA:922,1
DA:923,1
DA:924,1
DA:925,1
DA:926,1
DA:927,1
DA:928,1
DA:929,1
DA:930,1
DA:931,1
DA:932,1
DA:933,1
DA:934,1
DA:935,4
DA:937,6
DA:938,2
DA:939,1
DA:940,1
DA:941,1
DA:942,1
DA:943,1
DA:944,1
DA:945,4
DA:947,6
DA:949,18
DA:950,18
DA:953,10
DA:954,10
DA:955,1
DA:957,9
DA:958,7
DA:959,1
DA:960,1
DA:962,10
DA:965,386
DA:966,386
DA:967,5
DA:968,4
DA:969,1
DA:970,381
DA:971,382
DA:972,382
DA:973,382
DA:974,382
DA:975,386
DA:978,15
DA:979,15
DA:980,3
DA:981,2
DA:982,1
DA:983,12
DA:984,13
DA:985,15
DA:988,1526
DA:989,1526
DA:990,1526
DA:991,1526
DA:992,1526
DA:993,1526
DA:995,1526
DA:996,1
DA:997,1
DA:998,1
DA:999,1
DA:1000,1525
DA:1001,1525
DA:1002,1525
DA:1003,1525
DA:1004,1525
DA:1005,1
DA:1006,1
DA:1007,1
DA:1008,1525
DA:1009,6
DA:1010,5
DA:1011,1
DA:1013,1
DA:1014,1
DA:1015,1
DA:1017,1
DA:1018,1
DA:1019,1
DA:1020,1
DA:1021,1
DA:1022,1
DA:1023,1
DA:1024,1
DA:1025,1
DA:1028,6
DA:1030,1525
DA:1031,1526
DA:1034,383
DA:1035,383
DA:1036,383
DA:1037,383
DA:1038,383
DA:1039,383
DA:1040,383
DA:1041,383
DA:1042,383
DA:1043,1526
DA:1044,1526
DA:1045,1526
DA:1046,1526
DA:1047,1526
DA:1049,1525
DA:1050,1
DA:1053,383
DA:1054,383
DA:1055,383
DA:1058,1
DA:1059,1
DA:1060,1
DA:1061,1
DA:1062,1
DA:1065,21
DA:1066,21
DA:1067,21
DA:1068,21
DA:1069,21
DA:1070,21
DA:1071,21
DA:1072,21
DA:1073,21
DA:1074,21
DA:1075,21
DA:1076,21
DA:1077,21
DA:1078,21
DA:1079,21
DA:1081,21
DA:1082,21
DA:1083,21
DA:1084,21
DA:1085,21
DA:1086,21
DA:1087,21
DA:1088,21
DA:1089,21
DA:1090,21
DA:1091,21
DA:1092,21
DA:1093,21
DA:1094,21
DA:1095,21
DA:1096,21
DA:1097,21
DA:1098,21
DA:1099,21
DA:1100,21
DA:1101,21
DA:1102,21
DA:1103,21
DA:1104,21
DA:1105,21
DA:1106,21
DA:1107,21
DA:1108,21
DA:1109,21
DA:1110,21
DA:1111,21
DA:1112,21
DA:1113,21
DA:1114,21
DA:1116,21
DA:1117,21
DA:1118,21
DA:1119,21
DA:1120,21
DA:1121,21
DA:1122,21
DA:1123,21
DA:1124,21
DA:1125,21
DA:1126,21
DA:1127,21
DA:1128,21
DA:1129,21
DA:1130,21
DA:1131,21
DA:1132,21
DA:1133,21
DA:1134,21
DA:1137,17
DA:1138,17
DA:1139,3
DA:1140,3
DA:1141,2
DA:1142,1
DA:1143,14
DA:1144,15
DA:1145,17
DA:1148,14
DA:1149,14
DA:1150,14
DA:1151,14
DA:1152,14
DA:1154,14
DA:1155,14
DA:1156,14
DA:1157,14
DA:1159,14
DA:1160,14
DA:1161,14
DA:1162,14
DA:1164,14
DA:1165,14
DA:1166,13
DA:1167,13
DA:1168,13
DA:1169,14
DA:1170,14
DA:1171,14
DA:1174,14
DA:1175,14
DA:1192,14
DA:1193,14
DA:1194,14
DA:1195,14
DA:1196,14
DA:1197,14
DA:1198,14
DA:1199,14
DA:1200,14
DA:1201,14
DA:1202,14
DA:1203,14
DA:1204,14
DA:1205,14
DA:1206,14
DA:1208,14
DA:1209,1
DA:1210,1
DA:1211,1
DA:1212,1
DA:1213,13
DA:1214,14
DA:1216,14
DA:1217,14
DA:1220,254
DA:1221,254
DA:1222,1897
DA:1223,1897
DA:1224,1
DA:1225,1
DA:1226,1
DA:1227,1
DA:1228,1
DA:1229,1892
DA:1232,254
DA:1233,254
DA:1236,24
DA:1237,24
DA:1238,3
DA:1239,2
DA:1240,1
DA:1241,21
DA:1242,22
DA:1243,22
DA:1244,22
DA:1245,21
DA:1246,19
DA:1248,18
DA:1249,18
DA:1250,18
DA:1253,24
DA:1256,31
DA:1257,31
DA:1258,31
DA:1259,31
DA:1261,22
DA:1262,21
DA:1263,20
DA:1267,6
DA:1268,5
DA:1269,4
DA:1270,3
DA:1272,3
DA:1274,21
DA:1275,31
DA:1278,25
DA:1279,25
DA:1280,25
DA:1281,25
DA:1282,25
DA:1287,390
DA:1290,390
DA:1294,1524
DA:1295,1524
DA:1296,1524
DA:1297,390
DA:1313,1560
DA:1314,1560
DA:1315,1560
DA:1316,1560
DA:1317,1560
DA:1318,1560
DA:1319,1560
DA:1320,1560
DA:1321,1560
DA:1322,1560
DA:1323,1560
DA:1324,1560
DA:1325,1560
DA:1326,1560
DA:1327,1560
DA:1328,1560
DA:1329,1560
DA:1330,1560
DA:1331,1560
DA:1332,1560
DA:1333,1560
DA:1334,1560
DA:1335,1560
DA:1336,1560
DA:1338,42
DA:1339,42
DA:1340,1
DA:1341,41
DA:1342,41
DA:1343,39
DA:1345,2
DA:1347,41
DA:1348,41
DA:1349,5
DA:1351,36
DA:1353,41
DA:1354,39
DA:1355,4
DA:1356,4
DA:1357,1
DA:1358,3
DA:1359,4
DA:1360,35
DA:1361,35
DA:1362,2
DA:1363,2
DA:1364,42
DA:1366,41
DA:1367,41
DA:1368,41
DA:1369,41
DA:1370,41
DA:1371,41
DA:1372,41
DA:1373,40
DA:1374,40
DA:1375,40
DA:1376,39
DA:1377,39
DA:1378,39
DA:1379,39
DA:1380,39
DA:1381,39
DA:1382,39
DA:1383,39
DA:1384,39
DA:1385,39
DA:1386,39
DA:1387,39
DA:1388,39
DA:1389,39
DA:1390,39
DA:1392,39
DA:1393,39
DA:1394,39
DA:1395,39
DA:1396,160
DA:1397,160
DA:1398,159
DA:1399,121
DA:1400,242
DA:1401,121
DA:1402,6
DA:1403,115
DA:1405,121
DA:1406,38
DA:1407,159
DA:1408,159
DA:1409,159
DA:1410,159
DA:1411,159
DA:1412,1
DA:1413,1
DA:1414,1
DA:1415,1
DA:1417,39
DA:1420,39
DA:1421,39
DA:1422,39
DA:1423,39
DA:1424,39
DA:1425,39
DA:1426,39
DA:1427,39
DA:1428,40
DA:1429,40
DA:1430,41
DA:1432,3
DA:1433,3
DA:1434,3
DA:1435,4
DA:1436,4
DA:1437,4
DA:1438,4
DA:1439,3
DA:1440,3
DA:1442,3
DA:1443,3
DA:1444,3
DA:1445,3
DA:1463,1561
DA:1497,1561
DA:1498,1555
DA:1500,6
DA:1502,1561
DA:1503,1561
DA:1504,1555
DA:1505,1555
DA:1506,1
DA:1507,1554
DA:1508,6
DA:1509,2
DA:1510,4
DA:1511,1561
DA:1512,1555
DA:1513,1555
DA:1514,1
DA:1515,1554
DA:1516,6
DA:1517,2
DA:1518,4
DA:1519,1561
DA:1520,1555
DA:1521,1555
DA:1522,1
DA:1523,1554
DA:1524,6
DA:1525,2
DA:1526,4
DA:1527,1561
DA:1528,1561
DA:1529,1555
DA:1530,1555
DA:1531,1
DA:1532,1554
DA:1533,6
DA:1534,2
DA:1535,4
DA:1536,1561
DA:1537,1555
DA:1538,1555
DA:1539,1555
DA:1540,1
DA:1541,1554
DA:1542,6
DA:1543,4
DA:1544,4
DA:1545,4
DA:1546,1
DA:1547,3
DA:1548,2
DA:1549,1561
DA:1550,1
DA:1551,1560
DA:1552,1561
DA:1553,1555
DA:1554,1555
DA:1555,1
DA:1556,1554
DA:1557,6
DA:1558,2
DA:1559,4
DA:1560,1561
DA:1561,1561
DA:1563,26
DA:1564,26
DA:1565,25
DA:1566,25
DA:1567,11
DA:1568,11
DA:1569,11
DA:1570,7
DA:1571,6
DA:1572,1
DA:1573,5
DA:1574,5
DA:1575,1
DA:1576,1
DA:1577,4
DA:1578,4
DA:1579,3
DA:1580,1
DA:1581,14
DA:1582,15
DA:1583,1
DA:1584,14
DA:1585,14
DA:1586,1
DA:1587,13
DA:1588,13
DA:1589,1
DA:1590,12
DA:1591,12
DA:1592,1
DA:1593,11
DA:1594,11
DA:1595,1
DA:1596,1
DA:1597,26
DA:1599,1558
DA:1601,1558
DA:1602,1
DA:1603,1557
DA:1605,1557
DA:1606,1
DA:1607,1556
DA:1608,1556
DA:1609,1556
DA:1610,1555
DA:1611,1555
DA:1612,1555
DA:1613,1555
DA:1614,45290
DA:1615,45290
DA:1616,45290
DA:1617,44947
DA:1618,343
DA:1619,343
DA:1620,45290
DA:1621,1555
DA:1622,1555
DA:1623,1554
DA:1624,1554
DA:1625,1554
DA:1626,1554
DA:1627,1553
DA:1628,1553
DA:1629,1553
DA:1630,1553
DA:1632,1553
DA:1633,1553
DA:1634,33
DA:1635,33
DA:1636,33
DA:1637,33
DA:1638,33
DA:1641,1553
DA:1642,1
DA:1643,1
DA:1644,1
DA:1646,1
DA:1647,1552
DA:1648,1552
DA:1649,1
DA:1650,1
DA:1651,1
DA:1653,1
DA:1654,4650
DA:1655,4650
DA:1656,4650
DA:1657,3
DA:1658,3
DA:1659,4650
DA:1660,1551
DA:1661,1550
DA:1662,1549
DA:1663,1548
DA:1664,22
DA:1665,22
DA:1666,22
DA:1667,22
DA:1668,22
DA:1669,22
DA:1670,1526
DA:1671,1548
DA:1672,1553
DA:1673,1553
DA:1674,1548
DA:1675,405
DA:1676,405
DA:1677,405
DA:1678,405
DA:1679,1143
DA:1680,1548
DA:1681,1548
DA:1682,1548
DA:1683,1548
DA:1684,1548
DA:1685,1548
DA:1686,1558
DA:1688,12
DA:1689,12
DA:1690,12
DA:1691,12
DA:1692,12
DA:1693,12
DA:1694,12
DA:1696,12
DA:1697,12
DA:1698,12
DA:1699,12
DA:1700,12
DA:1701,12
DA:1702,12
DA:1703,11
DA:1704,11
DA:1705,11
DA:1706,11
DA:1707,11
DA:1708,11
DA:1709,11
DA:1710,11
DA:1711,11
DA:1712,11
DA:1713,11
DA:1715,11
DA:1716,10
DA:1717,10
DA:1718,10
DA:1719,12
DA:1720,12
DA:1721,12
DA:1722,12
DA:1724,1555
DA:1725,1555
DA:1726,1549
DA:1727,6
DA:1729,1555
DA:1731,15
DA:1732,15
DA:1733,15
DA:1734,15
DA:1735,15
DA:1736,15
DA:1737,9
DA:1738,6
DA:1739,6
DA:1740,1
DA:1741,5
DA:1742,5
DA:1745,15
DA:1747,13
DA:1748,13
DA:1749,8
DA:1750,6
DA:1752,7
DA:1753,7
DA:1754,1
DA:1755,6
DA:1756,6
DA:1757,6
DA:1758,6
DA:1759,6
DA:1760,70
DA:1761,70
DA:1762,1
DA:1763,69
DA:1764,69
DA:1765,68
DA:1766,68
DA:1767,1
DA:1768,1
DA:1770,6
DA:1771,1
DA:1772,5
DA:1773,6
DA:1774,6
DA:1775,6
DA:1776,13
DA:1778,13
DA:1779,13
DA:1780,9
DA:1781,5
DA:1783,8
DA:1784,8
DA:1785,1
DA:1786,7
DA:1787,7
DA:1788,7
DA:1789,7
DA:1790,7
DA:1791,80
DA:1792,80
DA:1793,1
DA:1794,79
DA:1795,79
DA:1796,74
DA:1797,74
DA:1798,5
DA:1799,5
DA:1801,7
DA:1802,1
DA:1803,6
DA:1804,7
DA:1805,7
DA:1806,7
DA:1807,7
DA:1808,7
DA:1809,7
DA:1810,7
DA:1811,6
DA:1812,6
DA:1813,6
DA:1814,6
DA:1815,7
DA:1816,13
DA:1818,11
DA:1819,11
DA:1820,10
DA:1821,1
DA:1823,10
DA:1824,9
DA:1825,1
DA:1827,9
DA:1828,9
DA:1829,8
DA:1830,1
DA:1832,8
DA:1833,8
DA:1834,7
DA:1835,1
DA:1837,7
DA:1838,7
DA:1839,7
DA:1840,7
DA:1841,7
DA:1842,7
DA:1844,5
DA:1845,5
DA:1846,4
DA:1848,1
DA:1850,2
DA:1851,7
DA:1852,7
DA:1853,7
DA:1854,7
DA:1855,7
DA:1857,5
DA:1858,5
DA:1859,2
DA:1861,3
DA:1863,2
DA:1864,7
DA:1865,2
DA:1866,5
DA:1867,5
DA:1868,5
DA:1869,5
DA:1870,5
DA:1871,5
DA:1872,11
DA:1874,29
DA:1875,29
DA:1876,29
DA:1877,28
DA:1878,1
DA:1880,28
DA:1881,27
DA:1882,1
DA:1884,27
DA:1885,27
DA:1886,27
DA:1887,27
DA:1888,27
DA:1889,29
DA:1891,25
DA:1892,25
DA:1893,25
DA:1894,18
DA:1895,7
DA:1896,7
DA:1897,6
DA:1898,1
DA:1900,6
DA:1901,6
DA:1902,6
DA:1903,6
DA:1904,6
DA:1905,6
DA:1906,6
DA:1907,6
DA:1908,6
DA:1909,25
DA:1911,10
DA:1912,10
DA:1913,5
DA:1914,5
DA:1915,5
DA:1916,5
DA:1917,5
DA:1918,8
DA:1919,5
DA:1920,5
DA:1921,5
DA:1922,4
DA:1924,1
DA:1925,1
DA:1926,1
DA:1929,4
DA:1930,4
DA:1931,3
DA:1933,1
DA:1934,1
DA:1935,1
DA:1938,3
DA:1939,3
DA:1940,3
DA:1941,5
DA:1942,3
DA:1943,3
DA:1944,3
DA:1945,2
DA:1946,2
DA:1947,1
DA:1948,1
DA:1951,3
DA:1952,3
DA:1953,3
DA:1954,3
DA:1956,5
DA:1957,5
DA:1958,3
DA:1960,2
DA:1962,10
DA:1964,12
DA:1965,12
DA:1966,5
DA:1967,7
DA:1968,7
DA:1969,7
DA:1970,7
DA:1971,14
DA:1972,8
DA:1973,8
DA:1974,8
DA:1975,7
DA:1977,1
DA:1978,1
DA:1979,1
DA:1982,7
DA:1983,7
DA:1984,6
DA:1985,6
DA:1986,4
DA:1987,4
DA:1988,3
DA:1989,3
DA:1990,3
DA:1991,3
DA:1992,9
DA:1993,6
DA:1994,6
DA:1995,1
DA:1996,5
DA:1997,5
DA:1998,3
DA:1999,2
DA:2000,2
DA:2002,3
DA:2003,3
DA:2004,3
DA:2005,3
DA:2006,3
DA:2007,1
DA:2008,1
DA:2009,1
DA:2010,2
DA:2011,2
DA:2012,2
DA:2013,2
DA:2014,2
DA:2015,2
DA:2016,1
DA:2017,1
DA:2018,1
DA:2019,7
DA:2021,7
DA:2022,7
DA:2023,5
DA:2025,2
DA:2027,12
DA:2029,18
DA:2030,18
DA:2031,18
DA:2032,17
DA:2033,16
DA:2034,15
DA:2035,18
DA:2037,15
DA:2038,15
DA:2039,15
DA:2040,14
DA:2041,13
DA:2042,15
DA:2044,15
DA:2045,15
DA:2046,5
DA:2047,10
DA:2048,10
DA:2049,10
DA:2050,10
DA:2051,19
DA:2052,11
DA:2053,11
DA:2054,11
DA:2055,10
DA:2057,1
DA:2058,1
DA:2059,1
DA:2062,10
DA:2063,10
DA:2064,10
DA:2065,1
DA:2066,1
DA:2067,1
DA:2068,9
DA:2069,9
DA:2070,8
DA:2072,1
DA:2073,1
DA:2074,1
DA:2077,8
DA:2078,8
DA:2079,8
DA:2081,7
DA:2082,7
DA:2084,8
DA:2085,8
DA:2087,6
DA:2088,7
DA:2089,7
DA:2091,6
DA:2092,6
DA:2093,6
DA:2094,5
DA:2095,4
DA:2096,4
DA:2097,4
DA:2098,4
DA:2099,4
DA:2100,4
DA:2101,4
DA:2102,4
DA:2103,4
DA:2104,4
DA:2105,4
DA:2107,4
DA:2108,4
DA:2109,4
DA:2110,4
DA:2111,4
DA:2112,4
DA:2113,4
DA:2114,3
DA:2116,1
DA:2118,4
DA:2119,4
DA:2120,4
DA:2121,4
DA:2122,4
DA:2123,4
DA:2124,4
DA:2125,1
DA:2126,1
DA:2127,1
DA:2128,1
DA:2129,8
DA:2130,8
DA:2131,8
DA:2132,8
DA:2134,10
DA:2135,10
DA:2136,4
DA:2138,6
DA:2140,15
DA:2142,11
DA:2143,11
DA:2144,5
DA:2145,6
DA:2146,6
DA:2147,6
DA:2148,6
DA:2149,13
DA:2150,8
DA:2151,8
DA:2152,8
DA:2153,7
DA:2155,1
DA:2156,1
DA:2157,1
DA:2160,7
DA:2161,7
DA:2162,7
DA:2163,4
DA:2164,4
DA:2165,2
DA:2166,2
DA:2167,7
DA:2168,5
DA:2169,5
DA:2170,7
DA:2171,7
DA:2173,6
DA:2174,6
DA:2175,4
DA:2177,2
DA:2179,11
DA:2181,44
DA:2182,44
DA:2183,44
DA:2184,33
DA:2185,32
DA:2186,44
DA:2188,8
DA:2189,8
DA:2190,8
DA:2191,7
DA:2192,1
DA:2194,7
DA:2195,6
DA:2196,1
DA:2198,6
DA:2199,6
DA:2200,6
DA:2201,6
DA:2202,6
DA:2203,8
DA:2205,27
DA:2206,27
DA:2207,27
DA:2208,19
DA:2209,8
DA:2211,19
DA:2212,19
DA:2213,18
DA:2214,1
DA:2216,18
DA:2217,18
DA:2218,18
DA:2219,18
DA:2220,16
DA:2221,16
DA:2222,18
DA:2223,18
DA:2224,27
DA:2226,24
DA:2227,24
DA:2228,23
DA:2229,22
DA:2230,22
DA:2231,22
DA:2232,7
DA:2233,15
DA:2234,15
DA:2235,15
DA:2236,15
DA:2237,15
DA:2238,15
DA:2239,24
DA:2241,6
DA:2242,6
DA:2243,5
DA:2244,1
DA:2246,5
DA:2247,5
DA:2248,5
DA:2249,5
DA:2250,5
DA:2251,6
DA:2253,30
DA:2254,30
DA:2255,114
DA:2256,395
DA:2257,114
DA:2259,114
DA:2260,112
DA:2261,112
DA:2263,30
DA:2264,2
DA:2265,28
DA:2266,28
DA:2267,28
DA:2268,28
DA:2269,22
DA:2271,6
DA:2273,30
DA:2275,23
DA:2276,23
DA:2277,67
DA:2278,44
DA:2279,44
DA:2280,23
DA:2281,14
DA:2282,14
DA:2283,23
DA:2284,23
DA:2286,8
DA:2288,8
DA:2289,8
DA:2290,8
DA:2291,8
DA:2292,8
DA:2293,8
DA:2294,8
DA:2295,8
DA:2296,8
DA:2297,8
DA:2298,8
DA:2299,8
DA:2300,2
DA:2301,6
DA:2302,5
DA:2303,1
DA:2307,8
DA:2308,5
DA:2309,5
DA:2310,5
DA:2311,1
DA:2312,4
DA:2313,5
DA:2314,5
DA:2315,1
DA:2316,4
DA:2317,5
DA:2318,1
DA:2319,4
DA:2320,5
DA:2321,1
DA:2322,4
DA:2323,5
DA:2324,5
DA:2325,4
DA:2326,4
DA:2327,4
DA:2328,4
DA:2329,4
DA:2330,4
DA:2331,4
DA:2332,4
DA:2333,1
DA:2334,1
DA:2335,1
DA:2336,1
DA:2337,1
DA:2338,1
DA:2339,1
DA:2340,1
DA:2341,1
DA:2342,1
DA:2346,3
DA:2347,3
DA:2348,3
DA:2349,3
DA:2350,3
DA:2351,3
DA:2352,3
DA:2353,3
DA:2354,3
DA:2355,3
DA:2358,8
DA:2360,15
DA:2362,15
DA:2363,1
DA:2364,14
DA:2365,14
DA:2366,15
DA:2368,40
DA:2369,40
DA:2370,39
DA:2371,38
DA:2372,25
DA:2373,24
DA:2374,23
DA:2375,40
DA:2377,16
DA:2378,16
DA:2379,16
DA:2380,16
DA:2381,16
DA:2382,16
DA:2383,16
DA:2384,16
DA:2385,16
DA:2386,16
DA:2388,22
DA:2389,22
DA:2390,22
DA:2391,22
DA:2392,22
DA:2393,22
DA:2394,22
DA:2395,22
DA:2396,22
DA:2397,22
DA:2398,22
DA:2399,22
DA:2400,22
DA:2402,22
DA:2403,20
DA:2404,20
DA:2405,20
DA:2406,20
DA:2407,20
DA:2408,20
DA:2409,20
DA:2410,12
DA:2411,12
DA:2412,12
DA:2413,20
DA:2414,20
DA:2416,20
DA:2417,20
DA:2418,20
DA:2419,20
DA:2420,20
DA:2422,20
DA:2423,20
DA:2424,14
DA:2425,13
DA:2426,13
DA:2427,13
DA:2428,13
DA:2429,13
DA:2430,13
DA:2431,13
DA:2432,13
DA:2433,13
DA:2434,13
DA:2435,2
DA:2436,2
DA:2437,2
DA:2438,2
DA:2439,2
DA:2440,2
DA:2441,11
DA:2442,1
DA:2443,6
DA:2444,20
DA:2445,11
DA:2446,11
DA:2447,11
DA:2448,11
DA:2449,11
DA:2450,11
DA:2451,4
DA:2452,4
DA:2453,4
DA:2454,4
DA:2455,4
DA:2456,4
DA:2457,4
DA:2458,7
DA:2459,9
DA:2461,20
DA:2462,20
DA:2463,20
DA:2464,4
DA:2465,4
DA:2466,16
DA:2467,20
DA:2468,20
DA:2469,20
DA:2471,20
DA:2472,20
DA:2473,20
DA:2474,20
DA:2476,20
DA:2477,14
DA:2478,14
DA:2479,14
DA:2480,14
DA:2481,14
DA:2482,14
DA:2483,14
DA:2484,14
DA:2485,14
DA:2486,14
DA:2487,14
DA:2488,14
DA:2489,14
DA:2490,14
DA:2492,20
DA:2493,20
DA:2494,3
DA:2495,3
DA:2496,3
DA:2497,3
DA:2498,3
DA:2499,17
DA:2501,20
DA:2502,20
DA:2503,19
DA:2504,4
DA:2505,4
DA:2506,15
DA:2508,19
DA:2509,19
DA:2510,19
DA:2511,4
DA:2512,15
DA:2513,19
DA:2514,19
DA:2515,19
DA:2516,22
DA:2518,23
DA:2519,23
DA:2520,23
DA:2521,23
DA:2522,23
DA:2523,23
DA:2524,23
DA:2525,23
DA:2527,23
DA:2528,23
DA:2530,2
DA:2532,21
DA:2534,23
DA:2536,367
DA:2537,367
DA:2538,367
DA:2539,367
DA:2540,367
DA:2541,367
BRF:0
BRH:0
LF:1900
LH:1900
end_of_record
SF:C:\language\mdmdview\src\table_support\column_spec.rs
FN:109,_RINvMs0_NtNtCsj01YzKchgFg_8mdmdview13table_support11column_specNtB6_10ColumnSpec3newNtNtCs98nLQ3gaCym_5alloc6string6StringEBa_
FN:109,_RINvMs0_NtNtCsj01YzKchgFg_8mdmdview13table_support11column_specNtB6_10ColumnSpec3newReEBa_
FN:75,_RINvXs_NtNtCsj01YzKchgFg_8mdmdview13table_support11column_specNtB5_12ColumnPolicyNtNtCs3mF4h8B4xym_4core4hash4Hash4hashNtNtNtCsfF4KpLFRSdP_3std4hash6random13DefaultHasherEB9_
FN:229,_RNCNCNvNtNtCsj01YzKchgFg_8mdmdview13table_support11column_spec19derive_column_specss_00B9_
FN:244,_RNCNCNvNtNtCsj01YzKchgFg_8mdmdview13table_support11column_spec19derive_column_specss_0s0_0B9_
FN:234,_RNCNCNvNtNtCsj01YzKchgFg_8mdmdview13table_support11column_spec19derive_column_specss_0s_0B9_
FN:431,_RNCNvNtNtCsj01YzKchgFg_8mdmdview13table_support11column_spec11matches_any0B7_
FN:399,_RNCNvNtNtCsj01YzKchgFg_8mdmdview13table_support11column_spec15classify_column0B7_
FN:400,_RNCNvNtNtCsj01YzKchgFg_8mdmdview13table_support11column_spec15classify_columns_0B7_
FN:223,_RNCNvNtNtCsj01YzKchgFg_8mdmdview13table_support11column_spec19derive_column_specs0B7_
FN:269,_RNCNvNtNtCsj01YzKchgFg_8mdmdview13table_support11column_spec19derive_column_specss0_0B7_
FN:273,_RNCNvNtNtCsj01YzKchgFg_8mdmdview13table_support11column_spec19derive_column_specss1_0B7_
FN:274,_RNCNvNtNtCsj01YzKchgFg_8mdmdview13table_support11column_spec19derive_column_specss2_0B7_
FN:294,_RNCNvNtNtCsj01YzKchgFg_8mdmdview13table_support11column_spec19derive_column_specss5_0B7_
FN:228,_RNCNvNtNtCsj01YzKchgFg_8mdmdview13table_support11column_spec19derive_column_specss_0B7_
FN:467,_RNCNvNtNtCsj01YzKchgFg_8mdmdview13table_support11column_spec20compute_column_stats0B7_
FN:521,_RNCNvNtNtCsj01YzKchgFg_8mdmdview13table_support11column_spec25accumulate_stats_for_cell0B7_
FN:42,_RNvMNtNtCsj01YzKchgFg_8mdmdview13table_support11column_specNtB2_12ColumnPolicy9to_column
FN:130,_RNvMs0_NtNtCsj01YzKchgFg_8mdmdview13table_support11column_specNtB5_10ColumnSpec10set_policy
FN:135,_RNvMs0_NtNtCsj01YzKchgFg_8mdmdview13table_support11column_specNtB5_10ColumnSpec21apply_preferred_width
FN:126,_RNvMs0_NtNtCsj01YzKchgFg_8mdmdview13table_support11column_specNtB5_10ColumnSpec9as_column
FN:188,_RNvMs1_NtNtCsj01YzKchgFg_8mdmdview13table_support11column_specNtB5_18TableColumnContext11column_stat
FN:172,_RNvMs1_NtNtCsj01YzKchgFg_8mdmdview13table_support11column_specNtB5_18TableColumnContext3new
FN:311,_RNvNtNtCsj01YzKchgFg_8mdmdview13table_support11column_spec11header_text
FN:430,_RNvNtNtCsj01YzKchgFg_8mdmdview13table_support11column_spec11matches_any
FN:532,_RNvNtNtCsj01YzKchgFg_8mdmdview13table_support11column_spec13spans_to_text
FN:434,_RNvNtNtCsj01YzKchgFg_8mdmdview13table_support11column_spec14column_tooltip
FN:346,_RNvNtNtCsj01YzKchgFg_8mdmdview13table_support11column_spec15classify_column
FN:215,_RNvNtNtCsj01YzKchgFg_8mdmdview13table_support11column_spec19derive_column_specs
FN:460,_RNvNtNtCsj01YzKchgFg_8mdmdview13table_support11column_spec20compute_column_stats
FN:193,_RNvNtNtCsj01YzKchgFg_8mdmdview13table_support11column_spec21calculate_policy_hash
FN:419,_RNvNtNtCsj01YzKchgFg_8mdmdview13table_support11column_spec22column_needs_remainder
FN:12,_RNvNtNtCsj01YzKchgFg_8mdmdview13table_support11column_spec22normalize_body_font_px
FN:493,_RNvNtNtCsj01YzKchgFg_8mdmdview13table_support11column_spec25accumulate_stats_for_cell
FN:20,_RNvNtNtCsj01YzKchgFg_8mdmdview13table_support11column_spec2px
FNDA:87,_RINvMs0_NtNtCsj01YzKchgFg_8mdmdview13table_support11column_specNtB6_10ColumnSpec3newNtNtCs98nLQ3gaCym_5alloc6string6StringEBa_
FNDA:19,_RINvMs0_NtNtCsj01YzKchgFg_8mdmdview13table_support11column_specNtB6_10ColumnSpec3newReEBa_
FNDA:4,_RINvXs_NtNtCsj01YzKchgFg_8mdmdview13table_support11column_specNtB5_12ColumnPolicyNtNtCs3mF4h8B4xym_4core4hash4Hash4hashNtNtNtCsfF4KpLFRSdP_3std4hash6random13DefaultHasherEB9_
FNDA:82,_RNCNCNvNtNtCsj01YzKchgFg_8mdmdview13table_support11column_spec19derive_column_specss_00B9_
FNDA:5,_RNCNCNvNtNtCsj01YzKchgFg_8mdmdview13table_support11column_spec19derive_column_specss_0s0_0B9_
FNDA:80,_RNCNCNvNtNtCsj01YzKchgFg_8mdmdview13table_support11column_spec19derive_column_specss_0s_0B9_
FNDA:1694,_RNCNvNtNtCsj01YzKchgFg_8mdmdview13table_support11column_spec11matches_any0B7_
FNDA:20,_RNCNvNtNtCsj01YzKchgFg_8mdmdview13table_support11column_spec15classify_column0B7_
FNDA:2,_RNCNvNtNtCsj01YzKchgFg_8mdmdview13table_support11column_spec15classify_columns_0B7_
FNDA:34,_RNCNvNtNtCsj01YzKchgFg_8mdmdview13table_support11column_spec19derive_column_specs0B7_
FNDA:43,_RNCNvNtNtCsj01YzKchgFg_8mdmdview13table_support11column_spec19derive_column_specss0_0B7_
FNDA:43,_RNCNvNtNtCsj01YzKchgFg_8mdmdview13table_support11column_spec19derive_column_specss1_0B7_
FNDA:29,_RNCNvNtNtCsj01YzKchgFg_8mdmdview13table_support11column_spec19derive_column_specss2_0B7_
FNDA:73,_RNCNvNtNtCsj01YzKchgFg_8mdmdview13table_support11column_spec19derive_column_specss5_0B7_
FNDA:85,_RNCNvNtNtCsj01YzKchgFg_8mdmdview13table_support11column_spec19derive_column_specss_0B7_
FNDA:34,_RNCNvNtNtCsj01YzKchgFg_8mdmdview13table_support11column_spec20compute_column_stats0B7_
FNDA:1154,_RNCNvNtNtCsj01YzKchgFg_8mdmdview13table_support11column_spec25accumulate_stats_for_cell0B7_
FNDA:26,_RNvMNtNtCsj01YzKchgFg_8mdmdview13table_support11column_specNtB2_12ColumnPolicy9to_column
FNDA:34,_RNvMs0_NtNtCsj01YzKchgFg_8mdmdview13table_support11column_specNtB5_10ColumnSpec10set_policy
FNDA:5,_RNvMs0_NtNtCsj01YzKchgFg_8mdmdview13table_support11column_specNtB5_10ColumnSpec21apply_preferred_width
FNDA:18,_RNvMs0_NtNtCsj01YzKchgFg_8mdmdview13table_support11column_specNtB5_10ColumnSpec9as_column
FNDA:110,_RNvMs1_NtNtCsj01YzKchgFg_8mdmdview13table_support11column_specNtB5_18TableColumnContext11column_stat
FNDA:33,_RNvMs1_NtNtCsj01YzKchgFg_8mdmdview13table_support11column_specNtB5_18TableColumnContext3new
FNDA:91,_RNvNtNtCsj01YzKchgFg_8mdmdview13table_support11column_spec11header_text
FNDA:473,_RNvNtNtCsj01YzKchgFg_8mdmdview13table_support11column_spec11matches_any
FNDA:158,_RNvNtNtCsj01YzKchgFg_8mdmdview13table_support11column_spec13spans_to_text
FNDA:91,_RNvNtNtCsj01YzKchgFg_8mdmdview13table_support11column_spec14column_tooltip
FNDA:90,_RNvNtNtCsj01YzKchgFg_8mdmdview13table_support11column_spec15classify_column
FNDA:33,_RNvNtNtCsj01YzKchgFg_8mdmdview13table_support11column_spec19derive_column_specs
FNDA:30,_RNvNtNtCsj01YzKchgFg_8mdmdview13table_support11column_spec20compute_column_stats
FNDA:144,_RNvNtNtCsj01YzKchgFg_8mdmdview13table_support11column_spec21calculate_policy_hash
FNDA:64,_RNvNtNtCsj01YzKchgFg_8mdmdview13table_support11column_spec22column_needs_remainder
FNDA:135,_RNvNtNtCsj01YzKchgFg_8mdmdview13table_support11column_spec22normalize_body_font_px
FNDA:157,_RNvNtNtCsj01YzKchgFg_8mdmdview13table_support11column_spec25accumulate_stats_for_cell
FNDA:131,_RNvNtNtCsj01YzKchgFg_8mdmdview13table_support11column_spec2px
FNF:34
FNH:34
DA:12,135
DA:13,135
DA:14,132
DA:16,3
DA:18,135
DA:20,131
DA:21,131
DA:22,131
DA:42,26
DA:43,26
DA:44,2
DA:45,7
DA:46,7
DA:47,7
DA:48,6
DA:49,6
DA:50,7
DA:52,6
DA:53,6
DA:54,6
DA:55,1
DA:56,5
DA:57,6
DA:60,11
DA:61,11
DA:62,11
DA:64,11
DA:65,11
DA:66,2
DA:67,9
DA:68,11
DA:71,26
DA:75,4
DA:76,4
DA:77,4
DA:78,1
DA:79,1
DA:80,1
DA:81,1
DA:82,1
DA:83,1
DA:84,1
DA:85,1
DA:87,1
DA:88,1
DA:89,1
DA:90,1
DA:91,1
DA:92,1
DA:93,1
DA:94,1
DA:96,4
DA:109,106
DA:110,106
DA:111,106
DA:112,106
DA:113,106
DA:114,106
DA:115,106
DA:116,106
DA:117,106
DA:118,106
DA:119,106
DA:120,106
DA:121,106
DA:122,106
DA:123,106
DA:124,106
DA:126,18
DA:127,18
DA:128,18
DA:130,34
DA:131,34
DA:132,34
DA:133,34
DA:135,5
DA:137,4
DA:138,4
DA:140,5
DA:141,4
DA:142,4
DA:143,4
DA:144,4
DA:145,4
DA:146,5
DA:172,33
DA:173,33
DA:174,33
DA:175,33
DA:176,33
DA:177,33
DA:178,33
DA:179,33
DA:180,33
DA:181,33
DA:182,33
DA:183,33
DA:184,33
DA:185,33
DA:186,33
DA:188,110
DA:189,110
DA:190,110
DA:193,144
DA:194,144
DA:195,144
DA:196,144
DA:197,144
DA:198,144
DA:199,5
DA:200,35
DA:201,35
DA:202,35
DA:203,35
DA:204,33
DA:205,33
DA:206,33
DA:207,71
DA:208,71
DA:209,71
DA:210,71
DA:212,144
DA:213,144
DA:215,33
DA:216,33
DA:217,33
DA:218,33
DA:219,33
DA:220,33
DA:221,33
DA:222,33
DA:223,34
DA:225,33
DA:227,33
DA:228,85
DA:229,85
DA:230,85
DA:231,85
DA:233,85
DA:234,85
DA:235,80
DA:236,80
DA:237,2
DA:238,78
DA:239,80
DA:240,4
DA:241,76
DA:242,80
DA:243,80
DA:244,85
DA:245,85
DA:246,48
DA:247,48
DA:248,48
DA:249,85
DA:251,85
DA:252,85
DA:253,85
DA:254,85
DA:255,85
DA:256,33
DA:259,33
DA:260,24
DA:261,24
DA:262,23
DA:263,17
DA:264,17
DA:265,1
DA:266,24
DA:267,24
DA:268,24
DA:269,43
DA:270,24
DA:271,14
DA:272,14
DA:273,43
DA:274,29
DA:275,14
DA:276,14
DA:277,10
DA:278,24
DA:279,8
DA:280,8
DA:281,1
DA:282,1
DA:283,7
DA:285,17
DA:286,24
DA:287,18
DA:288,18
DA:289,18
DA:290,18
DA:291,9
DA:294,73
DA:295,107
DA:296,77
DA:297,3
DA:298,74
DA:299,74
DA:300,74
DA:301,25
DA:302,1
DA:303,1
DA:304,1
DA:305,73
DA:308,33
DA:309,33
DA:311,91
DA:312,91
DA:313,183
DA:314,92
DA:315,84
DA:316,1
DA:317,1
DA:318,1
DA:319,1
DA:320,88
DA:321,4
DA:322,84
DA:323,88
DA:325,2
DA:326,2
DA:327,1
DA:328,1
DA:329,2
DA:331,2
DA:332,2
DA:333,1
DA:334,1
DA:335,2
DA:339,91
DA:340,6
DA:342,85
DA:344,91
DA:346,90
DA:347,90
DA:348,90
DA:349,90
DA:350,90
DA:351,90
DA:352,90
DA:353,90
DA:354,90
DA:355,6
DA:356,6
DA:357,6
DA:358,6
DA:359,84
DA:360,84
DA:361,1
DA:362,1
DA:363,1
DA:364,1
DA:365,83
DA:366,83
DA:367,4
DA:368,4
DA:369,4
DA:370,4
DA:371,4
DA:372,79
DA:373,79
DA:374,3
DA:375,3
DA:376,3
DA:377,3
DA:378,76
DA:379,76
DA:380,76
DA:381,76
DA:383,15
DA:384,15
DA:385,15
DA:386,15
DA:387,15
DA:388,61
DA:389,61
DA:390,61
DA:391,61
DA:393,6
DA:394,6
DA:395,55
DA:396,55
DA:398,22
DA:399,22
DA:400,22
DA:402,18
DA:403,18
DA:404,18
DA:405,18
DA:406,4
DA:407,33
DA:408,37
DA:409,5
DA:410,5
DA:411,32
DA:412,32
DA:413,32
DA:414,32
DA:415,32
DA:416,32
DA:417,90
DA:419,64
DA:420,64
DA:421,63
DA:422,62
DA:423,61
DA:424,59
DA:426,1
DA:428,64
DA:430,473
DA:431,1694
DA:432,473
DA:434,91
DA:435,91
DA:436,1
DA:437,28
DA:438,28
DA:440,28
DA:442,13
DA:443,13
DA:444,13
DA:447,49
DA:448,49
DA:449,49
DA:450,49
DA:451,49
DA:454,49
DA:457,91
DA:458,91
DA:460,30
DA:461,30
DA:462,30
DA:463,30
DA:464,30
DA:465,30
DA:466,30
DA:467,34
DA:469,30
DA:470,1
DA:471,29
DA:473,29
DA:475,70
DA:476,70
DA:477,70
DA:479,29
DA:480,33
DA:481,82
DA:482,82
DA:483,82
DA:484,33
DA:485,33
DA:486,1
DA:487,32
DA:490,29
DA:491,30
DA:493,157
DA:494,157
DA:495,1
DA:496,156
DA:497,157
DA:498,157
DA:499,157
DA:501,328
DA:502,171
DA:503,3
DA:504,2
DA:505,166
DA:509,157
DA:510,157
DA:511,156
DA:512,156
DA:513,156
DA:515,234
DA:516,234
DA:517,234
DA:518,234
DA:520,156
DA:521,1154
DA:522,1
DA:523,1
DA:525,157
DA:526,157
DA:527,157
DA:528,157
DA:529,157
DA:530,157
DA:532,158
DA:533,158
DA:534,336
DA:535,178
DA:536,164
DA:537,1
DA:538,4
DA:539,1
DA:540,1
DA:541,171
DA:542,19
DA:543,152
DA:544,171
DA:546,4
DA:547,4
DA:548,1
DA:549,3
DA:550,4
DA:552,3
DA:553,3
DA:554,1
DA:555,2
DA:556,3
DA:560,158
DA:561,158
BRF:0
BRH:0
LF:426
LH:426
end_of_record
SF:C:\language\mdmdview\src\table_support\metrics.rs
FN:165,_RNCNvMs_NtNtCsj01YzKchgFg_8mdmdview13table_support7metricsNtB6_12TableMetrics6totals0Ba_
FN:55,_RNvMNtNtCsj01YzKchgFg_8mdmdview13table_support7metricsNtB2_16TableMetricEntry10begin_pass
FN:44,_RNvMNtNtCsj01YzKchgFg_8mdmdview13table_support7metricsNtB2_16TableMetricEntry10ensure_row
FN:107,_RNvMNtNtCsj01YzKchgFg_8mdmdview13table_support7metricsNtB2_16TableMetricEntry13header_height
FN:76,_RNvMNtNtCsj01YzKchgFg_8mdmdview13table_support7metricsNtB2_16TableMetricEntry13update_widths
FN:125,_RNvMNtNtCsj01YzKchgFg_8mdmdview13table_support7metricsNtB2_16TableMetricEntry14current_widths
FN:64,_RNvMNtNtCsj01YzKchgFg_8mdmdview13table_support7metricsNtB2_16TableMetricEntry15persisted_width
FN:60,_RNvMNtNtCsj01YzKchgFg_8mdmdview13table_support7metricsNtB2_16TableMetricEntry17note_row_rendered
FN:68,_RNvMNtNtCsj01YzKchgFg_8mdmdview13table_support7metricsNtB2_16TableMetricEntry19set_persisted_width
FN:115,_RNvMNtNtCsj01YzKchgFg_8mdmdview13table_support7metricsNtB2_16TableMetricEntry20update_header_height
FN:132,_RNvMNtNtCsj01YzKchgFg_8mdmdview13table_support7metricsNtB2_16TableMetricEntry22check_font_size_change
FN:72,_RNvMNtNtCsj01YzKchgFg_8mdmdview13table_support7metricsNtB2_16TableMetricEntry22remove_persisted_width
FN:51,_RNvMNtNtCsj01YzKchgFg_8mdmdview13table_support7metricsNtB2_16TableMetricEntry3row
FN:183,_RNvMs0_NtNtCsj01YzKchgFg_8mdmdview13table_support7metricsNtB5_10CacheStats10record_hit
FN:187,_RNvMs0_NtNtCsj01YzKchgFg_8mdmdview13table_support7metricsNtB5_10CacheStats11record_miss
FN:170,_RNvMs_NtNtCsj01YzKchgFg_8mdmdview13table_support7metricsNtB4_12TableMetrics5clear
FN:158,_RNvMs_NtNtCsj01YzKchgFg_8mdmdview13table_support7metricsNtB4_12TableMetrics5entry
FN:162,_RNvMs_NtNtCsj01YzKchgFg_8mdmdview13table_support7metricsNtB4_12TableMetrics6totals
FN:154,_RNvMs_NtNtCsj01YzKchgFg_8mdmdview13table_support7metricsNtB4_12TableMetrics9entry_mut
FNDA:4,_RNCNvMs_NtNtCsj01YzKchgFg_8mdmdview13table_support7metricsNtB6_12TableMetrics6totals0Ba_
FNDA:22,_RNvMNtNtCsj01YzKchgFg_8mdmdview13table_support7metricsNtB2_16TableMetricEntry10begin_pass
FNDA:29,_RNvMNtNtCsj01YzKchgFg_8mdmdview13table_support7metricsNtB2_16TableMetricEntry10ensure_row
FNDA:22,_RNvMNtNtCsj01YzKchgFg_8mdmdview13table_support7metricsNtB2_16TableMetricEntry13header_height
FNDA:25,_RNvMNtNtCsj01YzKchgFg_8mdmdview13table_support7metricsNtB2_16TableMetricEntry13update_widths
FNDA:22,_RNvMNtNtCsj01YzKchgFg_8mdmdview13table_support7metricsNtB2_16TableMetricEntry14current_widths
FNDA:100,_RNvMNtNtCsj01YzKchgFg_8mdmdview13table_support7metricsNtB2_16TableMetricEntry15persisted_width
FNDA:32,_RNvMNtNtCsj01YzKchgFg_8mdmdview13table_support7metricsNtB2_16TableMetricEntry17note_row_rendered
FNDA:29,_RNvMNtNtCsj01YzKchgFg_8mdmdview13table_support7metricsNtB2_16TableMetricEntry19set_persisted_width
FNDA:22,_RNvMNtNtCsj01YzKchgFg_8mdmdview13table_support7metricsNtB2_16TableMetricEntry20update_header_height
FNDA:32,_RNvMNtNtCsj01YzKchgFg_8mdmdview13table_support7metricsNtB2_16TableMetricEntry22check_font_size_change
FNDA:1,_RNvMNtNtCsj01YzKchgFg_8mdmdview13table_support7metricsNtB2_16TableMetricEntry22remove_persisted_width
FNDA:31,_RNvMNtNtCsj01YzKchgFg_8mdmdview13table_support7metricsNtB2_16TableMetricEntry3row
FNDA:2,_RNvMs0_NtNtCsj01YzKchgFg_8mdmdview13table_support7metricsNtB5_10CacheStats10record_hit
FNDA:1,_RNvMs0_NtNtCsj01YzKchgFg_8mdmdview13table_support7metricsNtB5_10CacheStats11record_miss
FNDA:259,_RNvMs_NtNtCsj01YzKchgFg_8mdmdview13table_support7metricsNtB4_12TableMetrics5clear
FNDA:100,_RNvMs_NtNtCsj01YzKchgFg_8mdmdview13table_support7metricsNtB4_12TableMetrics5entry
FNDA:3,_RNvMs_NtNtCsj01YzKchgFg_8mdmdview13table_support7metricsNtB4_12TableMetrics6totals
FNDA:169,_RNvMs_NtNtCsj01YzKchgFg_8mdmdview13table_support7metricsNtB4_12TableMetrics9entry_mut
FNF:19
FNH:19
DA:44,29
DA:45,29
DA:46,28
DA:47,28
DA:48,29
DA:49,29
DA:51,31
DA:52,31
DA:53,31
DA:55,22
DA:56,22
DA:57,22
DA:58,22
DA:60,32
DA:61,32
DA:62,32
DA:64,100
DA:65,100
DA:66,100
DA:68,29
DA:69,29
DA:70,29
DA:72,1
DA:73,1
DA:74,1
DA:76,25
DA:77,25
DA:78,1
DA:79,1
DA:80,1
DA:81,24
DA:83,24
DA:84,24
DA:85,24
DA:86,1
DA:87,1
DA:88,23
DA:89,8
DA:90,8
DA:91,1
DA:92,1
DA:93,7
DA:94,7
DA:95,2
DA:96,5
DA:100,24
DA:101,24
DA:102,24
DA:104,24
DA:105,25
DA:107,22
DA:108,22
DA:109,3
DA:111,19
DA:113,22
DA:115,22
DA:116,22
DA:117,22
DA:118,20
DA:119,20
DA:121,2
DA:123,22
DA:125,22
DA:126,22
DA:127,22
DA:132,32
DA:134,32
DA:135,7
DA:136,2
DA:137,2
DA:138,2
DA:139,5
DA:140,25
DA:141,25
DA:142,25
DA:143,30
DA:144,32
DA:154,169
DA:155,169
DA:156,169
DA:158,100
DA:159,100
DA:160,100
DA:162,3
DA:163,3
DA:164,3
DA:165,4
DA:166,4
DA:167,4
DA:168,3
DA:170,259
DA:171,259
DA:172,259
DA:183,2
DA:184,2
DA:185,2
DA:187,1
DA:188,1
DA:189,1
BRF:0
BRH:0
LF:100
LH:100
end_of_record
SF:C:\language\mdmdview\src\window_state.rs
FN:99,_RINvNtCsj01YzKchgFg_8mdmdview12window_state18write_window_stateNtNtCsfF4KpLFRSdP_3std2fs4FileEB4_
FN:99,_RINvNtCsj01YzKchgFg_8mdmdview12window_state18write_window_stateNtNvNtB2_5testss_40test_write_window_state_error_propagates13FailingWriterEB4_
FN:47,_RNCNvNtCsj01YzKchgFg_8mdmdview12window_state10state_path0B5_
FN:223,_RNCNvNtCsj01YzKchgFg_8mdmdview12window_state24force_registry_load_once0B5_
FN:213,_RNCNvNtCsj01YzKchgFg_8mdmdview12window_state25take_forced_registry_load0B5_
FN:198,_RNCNvNtCsj01YzKchgFg_8mdmdview12window_state27force_file_write_error_once0B5_
FN:193,_RNCNvNtCsj01YzKchgFg_8mdmdview12window_state28take_forced_file_write_error0B5_
FN:230,_RNCNvNtCsj01YzKchgFg_8mdmdview12window_state30force_registry_save_error_once0B5_
FN:218,_RNCNvNtCsj01YzKchgFg_8mdmdview12window_state31take_forced_registry_save_error0B5_
FN:12,_RNvNtCsj01YzKchgFg_8mdmdview12window_state10config_dir
FN:46,_RNvNtCsj01YzKchgFg_8mdmdview12window_state10state_path
FN:53,_RNvNtCsj01YzKchgFg_8mdmdview12window_state17load_window_state
FN:81,_RNvNtCsj01YzKchgFg_8mdmdview12window_state17save_window_state
FN:116,_RNvNtCsj01YzKchgFg_8mdmdview12window_state21sanitize_window_state
FN:222,_RNvNtCsj01YzKchgFg_8mdmdview12window_state24force_registry_load_once
FN:212,_RNvNtCsj01YzKchgFg_8mdmdview12window_state25take_forced_registry_load
FN:236,_RNvNtCsj01YzKchgFg_8mdmdview12window_state26load_window_state_registry
FN:241,_RNvNtCsj01YzKchgFg_8mdmdview12window_state26save_window_state_registry
FN:197,_RNvNtCsj01YzKchgFg_8mdmdview12window_state27force_file_write_error_once
FN:192,_RNvNtCsj01YzKchgFg_8mdmdview12window_state28take_forced_file_write_error
FN:229,_RNvNtCsj01YzKchgFg_8mdmdview12window_state30force_registry_save_error_once
FN:217,_RNvNtCsj01YzKchgFg_8mdmdview12window_state31take_forced_registry_save_error
FNDA:8,_RINvNtCsj01YzKchgFg_8mdmdview12window_state18write_window_stateNtNtCsfF4KpLFRSdP_3std2fs4FileEB4_
FNDA:1,_RINvNtCsj01YzKchgFg_8mdmdview12window_state18write_window_stateNtNvNtB2_5testss_40test_write_window_state_error_propagates13FailingWriterEB4_
FNDA:9,_RNCNvNtCsj01YzKchgFg_8mdmdview12window_state10state_path0B5_
FNDA:1,_RNCNvNtCsj01YzKchgFg_8mdmdview12window_state24force_registry_load_once0B5_
FNDA:11,_RNCNvNtCsj01YzKchgFg_8mdmdview12window_state25take_forced_registry_load0B5_
FNDA:1,_RNCNvNtCsj01YzKchgFg_8mdmdview12window_state27force_file_write_error_once0B5_
FNDA:9,_RNCNvNtCsj01YzKchgFg_8mdmdview12window_state28take_forced_file_write_error0B5_
FNDA:1,_RNCNvNtCsj01YzKchgFg_8mdmdview12window_state30force_registry_save_error_once0B5_
FNDA:11,_RNCNvNtCsj01YzKchgFg_8mdmdview12window_state31take_forced_registry_save_error0B5_
FNDA:24,_RNvNtCsj01YzKchgFg_8mdmdview12window_state10config_dir
FNDA:10,_RNvNtCsj01YzKchgFg_8mdmdview12window_state10state_path
FNDA:11,_RNvNtCsj01YzKchgFg_8mdmdview12window_state17load_window_state
FNDA:11,_RNvNtCsj01YzKchgFg_8mdmdview12window_state17save_window_state
FNDA:5,_RNvNtCsj01YzKchgFg_8mdmdview12window_state21sanitize_window_state
FNDA:1,_RNvNtCsj01YzKchgFg_8mdmdview12window_state24force_registry_load_once
FNDA:11,_RNvNtCsj01YzKchgFg_8mdmdview12window_state25take_forced_registry_load
FNDA:11,_RNvNtCsj01YzKchgFg_8mdmdview12window_state26load_window_state_registry
FNDA:11,_RNvNtCsj01YzKchgFg_8mdmdview12window_state26save_window_state_registry
FNDA:1,_RNvNtCsj01YzKchgFg_8mdmdview12window_state27force_file_write_error_once
FNDA:9,_RNvNtCsj01YzKchgFg_8mdmdview12window_state28take_forced_file_write_error
FNDA:1,_RNvNtCsj01YzKchgFg_8mdmdview12window_state30force_registry_save_error_once
FNDA:11,_RNvNtCsj01YzKchgFg_8mdmdview12window_state31take_forced_registry_save_error
FNF:21
FNH:21
DA:12,24
DA:16,24
DA:17,19
DA:18,19
DA:19,19
DA:20,5
DA:33,5
DA:34,1
DA:35,1
DA:36,1
DA:37,4
DA:38,4
DA:39,1
DA:40,1
DA:41,1
DA:42,3
DA:43,3
DA:44,24
DA:46,10
DA:47,10
DA:48,9
DA:49,9
DA:50,9
DA:51,10
DA:53,11
DA:56,11
DA:57,1
DA:58,10
DA:60,10
DA:61,9
DA:62,8
DA:63,8
DA:65,7
DA:66,7
DA:67,1
DA:68,6
DA:69,6
DA:70,5
DA:71,4
DA:72,3
DA:73,2
DA:74,2
DA:75,2
DA:76,2
DA:77,2
DA:78,2
DA:79,11
DA:81,11
DA:84,11
DA:85,1
DA:86,10
DA:88,11
DA:89,10
DA:90,8
DA:91,2
DA:92,9
DA:93,9
DA:94,8
DA:95,1
DA:96,8
DA:97,11
DA:99,9
DA:102,9
DA:103,1
DA:104,1
DA:105,1
DA:106,1
DA:107,8
DA:108,8
DA:109,8
DA:110,8
DA:111,8
DA:112,1
DA:113,7
DA:114,9
DA:116,5
DA:118,5
DA:119,4
DA:120,3
DA:121,2
DA:123,4
DA:124,1
DA:127,1
DA:128,1
DA:129,1
DA:130,1
DA:131,1
DA:133,1
DA:134,1
DA:135,1
DA:136,1
DA:138,1
DA:139,1
DA:140,1
DA:141,1
DA:142,1
DA:143,5
DA:192,9
DA:193,9
DA:194,9
DA:197,1
DA:198,1
DA:199,1
DA:200,1
DA:201,1
DA:212,11
DA:213,11
DA:214,11
DA:217,11
DA:218,11
DA:219,11
DA:222,1
DA:223,1
DA:224,1
DA:225,1
DA:226,1
DA:229,1
DA:230,1
DA:231,1
DA:232,1
DA:233,1
DA:236,11
DA:237,11
DA:238,11
DA:241,11
DA:242,11
DA:243,1
DA:244,10
DA:245,10
DA:246,11
BRF:0
BRH:0
LF:137
LH:136
end_of_record